riscv64-unknown-elf-objdump -d bios.elf

bios.elf:     file format elf32-littleriscv


Disassembly of section .text:

40000000 <_start>:
40000000:	a805                	j	40000030 <start>
40000002:	0001                	nop
40000004:	51c0006f          	j	40000520 <putc_impl>
40000008:	6520006f          	j	4000065a <printf_impl>
4000000c:	7b60006f          	j	400007c2 <sscanf_impl>
40000010:	47f0006f          	j	40000c8e <sdread_impl>
40000014:	5470006f          	j	40000d5a <sdwrite_impl>
40000018:	0e3c                	addi	a5,sp,792
4000001a:	4000                	lw	s0,0(s0)
4000001c:	0f30006f          	j	4000090e <gets_impl>
40000020:	04f0006f          	j	4000086e <uart_read>
40000024:	1b90006f          	j	400009dc <crc32_impl>

40000028 <to_console>:
40000028:	021000ef          	jal	ra,40000848 <uart_flush>
4000002c:	2b20006f          	j	400002de <uart_console>

40000030 <start>:
40000030:	30047073          	csrci	mstatus,8
40000034:	40004137          	lui	sp,0x40004
40000038:	1121                	addi	sp,sp,-24
4000003a:	00000297          	auipc	t0,0x0
4000003e:	01028293          	addi	t0,t0,16 # 4000004a <trap>
40000042:	30529073          	csrw	mtvec,t0
40000046:	0280006f          	j	4000006e <main>

4000004a <trap>:
4000004a:	342025f3          	csrr	a1,mcause
4000004e:	00001517          	auipc	a0,0x1
40000052:	3e250513          	addi	a0,a0,994 # 40001430 <trap_msg>
40000056:	34302673          	csrr	a2,mtval
4000005a:	341026f3          	csrr	a3,mepc
4000005e:	870a                	mv	a4,sp
40000060:	8786                	mv	a5,ra
40000062:	40004137          	lui	sp,0x40004
40000066:	1121                	addi	sp,sp,-24
40000068:	5f2000ef          	jal	ra,4000065a <printf_impl>
4000006c:	bf75                	j	40000028 <to_console>

4000006e <main>:
4000006e:	1101                	addi	sp,sp,-32
40000070:	ce06                	sw	ra,28(sp)
40000072:	cc22                	sw	s0,24(sp)
40000074:	ca26                	sw	s1,20(sp)
40000076:	c84a                	sw	s2,16(sp)
40000078:	c64e                	sw	s3,12(sp)
4000007a:	c452                	sw	s4,8(sp)
4000007c:	67a1                	lui	a5,0x8
4000007e:	4705                	li	a4,1
40000080:	c398                	sw	a4,0(a5)
40000082:	67a9                	lui	a5,0xa
40000084:	0007a223          	sw	zero,4(a5) # a004 <_start-0x3fff5ffc>
40000088:	000507b7          	lui	a5,0x50
4000008c:	19f78793          	addi	a5,a5,415 # 5019f <_start-0x3ffafe61>
40000090:	6705                	lui	a4,0x1
40000092:	c71c                	sw	a5,8(a4)
40000094:	6785                	lui	a5,0x1
40000096:	4398                	lw	a4,0(a5)
40000098:	fe075fe3          	bgez	a4,40000096 <main+0x28>
4000009c:	0007a023          	sw	zero,0(a5) # 1000 <_start-0x3ffff000>
400000a0:	400049b7          	lui	s3,0x40004
400000a4:	080007b7          	lui	a5,0x8000
400000a8:	fef9ac23          	sw	a5,-8(s3) # 40003ff8 <__global_pointer$+0xfd9>
400000ac:	2121                	jal	400004b4 <init_text_mode>
400000ae:	40000437          	lui	s0,0x40000
400000b2:	40001537          	lui	a0,0x40001
400000b6:	55c50513          	addi	a0,a0,1372 # 4000155c <trap_msg+0x12c>
400000ba:	00840493          	addi	s1,s0,8 # 40000008 <_start+0x8>
400000be:	9482                	jalr	s1
400000c0:	2049                	jal	40000142 <print_cpu_info>
400000c2:	28dd                	jal	400001b8 <memtest>
400000c4:	892a                	mv	s2,a0
400000c6:	229000ef          	jal	ra,40000aee <init_sdcard>
400000ca:	fea9ae23          	sw	a0,-4(s3)
400000ce:	6a21                	lui	s4,0x8
400000d0:	004a2783          	lw	a5,4(s4) # 8004 <_start-0x3fff7ffc>
400000d4:	8b89                	andi	a5,a5,2
400000d6:	e39d                	bnez	a5,400000fc <main+0x8e>
400000d8:	4785                	li	a5,1
400000da:	02a7f163          	bgeu	a5,a0,400000fc <main+0x8e>
400000de:	0441                	addi	s0,s0,16
400000e0:	4609                	li	a2,2
400000e2:	4581                	li	a1,0
400000e4:	40002537          	lui	a0,0x40002
400000e8:	9402                	jalr	s0
400000ea:	4789                	li	a5,2
400000ec:	842a                	mv	s0,a0
400000ee:	02f50063          	beq	a0,a5,4000010e <main+0xa0>
400000f2:	40001537          	lui	a0,0x40001
400000f6:	57c50513          	addi	a0,a0,1404 # 4000157c <trap_msg+0x14c>
400000fa:	9482                	jalr	s1
400000fc:	40001537          	lui	a0,0x40001
40000100:	400007b7          	lui	a5,0x40000
40000104:	5d850513          	addi	a0,a0,1496 # 400015d8 <trap_msg+0x1a8>
40000108:	07a1                	addi	a5,a5,8
4000010a:	9782                	jalr	a5
4000010c:	2ac9                	jal	400002de <uart_console>
4000010e:	400029b7          	lui	s3,0x40002
40000112:	3fc9a703          	lw	a4,1020(s3) # 400023fc <trap_msg+0xfcc>
40000116:	405a07b7          	lui	a5,0x405a0
4000011a:	00f70763          	beq	a4,a5,40000128 <main+0xba>
4000011e:	40001537          	lui	a0,0x40001
40000122:	59c50513          	addi	a0,a0,1436 # 4000159c <trap_msg+0x16c>
40000126:	bfd1                	j	400000fa <main+0x8c>
40000128:	fc090ae3          	beqz	s2,400000fc <main+0x8e>
4000012c:	40001537          	lui	a0,0x40001
40000130:	5c450513          	addi	a0,a0,1476 # 400015c4 <trap_msg+0x194>
40000134:	9482                	jalr	s1
40000136:	0000100f          	fence.i
4000013a:	008a2023          	sw	s0,0(s4)
4000013e:	9982                	jalr	s3
40000140:	bf75                	j	400000fc <main+0x8e>

40000142 <print_cpu_info>:
40000142:	1101                	addi	sp,sp,-32
40000144:	c84a                	sw	s2,16(sp)
40000146:	40001537          	lui	a0,0x40001
4000014a:	40000937          	lui	s2,0x40000
4000014e:	ce06                	sw	ra,28(sp)
40000150:	cc22                	sw	s0,24(sp)
40000152:	ca26                	sw	s1,20(sp)
40000154:	c64e                	sw	s3,12(sp)
40000156:	00890793          	addi	a5,s2,8 # 40000008 <_start+0x8>
4000015a:	47450513          	addi	a0,a0,1140 # 40001474 <trap_msg+0x44>
4000015e:	9782                	jalr	a5
40000160:	301024f3          	csrr	s1,misa
40000164:	77fd                	lui	a5,0xfffff
40000166:	eff78793          	addi	a5,a5,-257 # ffffeeff <__global_pointer$+0xbfffbee0>
4000016a:	8cfd                	and	s1,s1,a5
4000016c:	06100413          	li	s0,97
40000170:	0911                	addi	s2,s2,4
40000172:	07b00993          	li	s3,123
40000176:	0014f793          	andi	a5,s1,1
4000017a:	c399                	beqz	a5,40000180 <print_cpu_info+0x3e>
4000017c:	8522                	mv	a0,s0
4000017e:	9902                	jalr	s2
40000180:	0405                	addi	s0,s0,1
40000182:	0ff47413          	andi	s0,s0,255
40000186:	8085                	srli	s1,s1,0x1
40000188:	ff3417e3          	bne	s0,s3,40000176 <print_cpu_info+0x34>
4000018c:	67a1                	lui	a5,0x8
4000018e:	478c                	lw	a1,8(a5)
40000190:	000f47b7          	lui	a5,0xf4
40000194:	24078793          	addi	a5,a5,576 # f4240 <_start-0x3ff0bdc0>
40000198:	02f5c5b3          	div	a1,a1,a5
4000019c:	4462                	lw	s0,24(sp)
4000019e:	40f2                	lw	ra,28(sp)
400001a0:	44d2                	lw	s1,20(sp)
400001a2:	4942                	lw	s2,16(sp)
400001a4:	49b2                	lw	s3,12(sp)
400001a6:	40001537          	lui	a0,0x40001
400001aa:	40000337          	lui	t1,0x40000
400001ae:	48050513          	addi	a0,a0,1152 # 40001480 <trap_msg+0x50>
400001b2:	0321                	addi	t1,t1,8
400001b4:	6105                	addi	sp,sp,32
400001b6:	8302                	jr	t1

400001b8 <memtest>:
400001b8:	67a1                	lui	a5,0x8
400001ba:	47d0                	lw	a2,12(a5)
400001bc:	000f47b7          	lui	a5,0xf4
400001c0:	24078793          	addi	a5,a5,576 # f4240 <_start-0x3ff0bdc0>
400001c4:	02f64633          	div	a2,a2,a5
400001c8:	7179                	addi	sp,sp,-48
400001ca:	d422                	sw	s0,40(sp)
400001cc:	40004437          	lui	s0,0x40004
400001d0:	ff842583          	lw	a1,-8(s0) # 40003ff8 <__global_pointer$+0xfd9>
400001d4:	cc52                	sw	s4,24(sp)
400001d6:	40001537          	lui	a0,0x40001
400001da:	40000a37          	lui	s4,0x40000
400001de:	d226                	sw	s1,36(sp)
400001e0:	d04a                	sw	s2,32(sp)
400001e2:	ce4e                	sw	s3,28(sp)
400001e4:	ca56                	sw	s5,20(sp)
400001e6:	c85a                	sw	s6,16(sp)
400001e8:	008a0713          	addi	a4,s4,8 # 40000008 <_start+0x8>
400001ec:	d606                	sw	ra,44(sp)
400001ee:	c65e                	sw	s7,12(sp)
400001f0:	81d1                	srli	a1,a1,0x14
400001f2:	4a850513          	addi	a0,a0,1192 # 400014a8 <trap_msg+0x78>
400001f6:	4981                	li	s3,0
400001f8:	6909                	lui	s2,0x2
400001fa:	80000b37          	lui	s6,0x80000
400001fe:	0a11                	addi	s4,s4,4
40000200:	4a91                	li	s5,4
40000202:	9702                	jalr	a4
40000204:	ff842483          	lw	s1,-8(s0)
40000208:	6409                	lui	s0,0x2
4000020a:	8091                	srli	s1,s1,0x4
4000020c:	0019f793          	andi	a5,s3,1
40000210:	0791                	addi	a5,a5,4
40000212:	06944863          	blt	s0,s1,40000282 <memtest+0xca>
40000216:	02e00513          	li	a0,46
4000021a:	0985                	addi	s3,s3,1
4000021c:	9a02                	jalr	s4
4000021e:	8c05                	sub	s0,s0,s1
40000220:	ff5996e3          	bne	s3,s5,4000020c <memtest+0x54>
40000224:	6b41                	lui	s6,0x10
40000226:	40000ab7          	lui	s5,0x40000
4000022a:	4a01                	li	s4,0
4000022c:	4405                	li	s0,1
4000022e:	6909                	lui	s2,0x2
40000230:	6989                	lui	s3,0x2
40000232:	80000bb7          	lui	s7,0x80000
40000236:	f00b0b13          	addi	s6,s6,-256 # ff00 <_start-0x3fff0100>
4000023a:	0a91                	addi	s5,s5,4
4000023c:	001a7713          	andi	a4,s4,1
40000240:	0711                	addi	a4,a4,4
40000242:	06994163          	blt	s2,s1,400002a4 <memtest+0xec>
40000246:	02e00513          	li	a0,46
4000024a:	9a82                	jalr	s5
4000024c:	0a05                	addi	s4,s4,1
4000024e:	4791                	li	a5,4
40000250:	40990933          	sub	s2,s2,s1
40000254:	fefa14e3          	bne	s4,a5,4000023c <memtest+0x84>
40000258:	ec35                	bnez	s0,400002d4 <memtest+0x11c>
4000025a:	40001537          	lui	a0,0x40001
4000025e:	49c50513          	addi	a0,a0,1180 # 4000149c <trap_msg+0x6c>
40000262:	400007b7          	lui	a5,0x40000
40000266:	07a1                	addi	a5,a5,8
40000268:	9782                	jalr	a5
4000026a:	50b2                	lw	ra,44(sp)
4000026c:	8522                	mv	a0,s0
4000026e:	5422                	lw	s0,40(sp)
40000270:	5492                	lw	s1,36(sp)
40000272:	5902                	lw	s2,32(sp)
40000274:	49f2                	lw	s3,28(sp)
40000276:	4a62                	lw	s4,24(sp)
40000278:	4ad2                	lw	s5,20(sp)
4000027a:	4b42                	lw	s6,16(sp)
4000027c:	4bb2                	lw	s7,12(sp)
4000027e:	6145                	addi	sp,sp,48
40000280:	8082                	ret
40000282:	01991693          	slli	a3,s2,0x19
40000286:	0126e6b3          	or	a3,a3,s2
4000028a:	00291713          	slli	a4,s2,0x2
4000028e:	975a                	add	a4,a4,s6
40000290:	0086d613          	srli	a2,a3,0x8
40000294:	c314                	sw	a3,0(a4)
40000296:	fff64693          	not	a3,a2
4000029a:	00d700a3          	sb	a3,1(a4) # 1001 <_start-0x3fffefff>
4000029e:	943e                	add	s0,s0,a5
400002a0:	993e                	add	s2,s2,a5
400002a2:	bf85                	j	40000212 <memtest+0x5a>
400002a4:	c40d                	beqz	s0,400002ce <memtest+0x116>
400002a6:	00299693          	slli	a3,s3,0x2
400002aa:	96de                	add	a3,a3,s7
400002ac:	01999413          	slli	s0,s3,0x19
400002b0:	01346433          	or	s0,s0,s3
400002b4:	0036c583          	lbu	a1,3(a3)
400002b8:	016447b3          	xor	a5,s0,s6
400002bc:	0187d613          	srli	a2,a5,0x18
400002c0:	4401                	li	s0,0
400002c2:	00c59663          	bne	a1,a2,400002ce <memtest+0x116>
400002c6:	4280                	lw	s0,0(a3)
400002c8:	8c1d                	sub	s0,s0,a5
400002ca:	00143413          	seqz	s0,s0
400002ce:	993a                	add	s2,s2,a4
400002d0:	99ba                	add	s3,s3,a4
400002d2:	bf85                	j	40000242 <memtest+0x8a>
400002d4:	40001537          	lui	a0,0x40001
400002d8:	49450513          	addi	a0,a0,1172 # 40001494 <trap_msg+0x64>
400002dc:	b759                	j	40000262 <memtest+0xaa>

400002de <uart_console>:
400002de:	7159                	addi	sp,sp,-112
400002e0:	d4a2                	sw	s0,104(sp)
400002e2:	cece                	sw	s3,92(sp)
400002e4:	ccd2                	sw	s4,88(sp)
400002e6:	cad6                	sw	s5,84(sp)
400002e8:	40000437          	lui	s0,0x40000
400002ec:	400019b7          	lui	s3,0x40001
400002f0:	40001a37          	lui	s4,0x40001
400002f4:	40001ab7          	lui	s5,0x40001
400002f8:	d2a6                	sw	s1,100(sp)
400002fa:	d686                	sw	ra,108(sp)
400002fc:	d0ca                	sw	s2,96(sp)
400002fe:	00840493          	addi	s1,s0,8 # 40000008 <_start+0x8>
40000302:	72098993          	addi	s3,s3,1824 # 40001720 <trap_msg+0x2f0>
40000306:	4c8a0a13          	addi	s4,s4,1224 # 400014c8 <trap_msg+0x98>
4000030a:	4cca8a93          	addi	s5,s5,1228 # 400014cc <trap_msg+0x9c>
4000030e:	40001537          	lui	a0,0x40001
40000312:	4d450513          	addi	a0,a0,1236 # 400014d4 <trap_msg+0xa4>
40000316:	9482                	jalr	s1
40000318:	01c40793          	addi	a5,s0,28
4000031c:	04000593          	li	a1,64
40000320:	0808                	addi	a0,sp,16
40000322:	9782                	jalr	a5
40000324:	01014903          	lbu	s2,16(sp) # 40004010 <__global_pointer$+0xff1>
40000328:	47a9                	li	a5,10
4000032a:	fef902e3          	beq	s2,a5,4000030e <uart_console+0x30>
4000032e:	fbd90793          	addi	a5,s2,-67 # 1fbd <_start-0x3fffe043>
40000332:	0ff7f793          	andi	a5,a5,255
40000336:	4751                	li	a4,20
40000338:	14f76e63          	bltu	a4,a5,40000494 <uart_console+0x1b6>
4000033c:	078a                	slli	a5,a5,0x2
4000033e:	97ce                	add	a5,a5,s3
40000340:	439c                	lw	a5,0(a5)
40000342:	8782                	jr	a5
40000344:	400015b7          	lui	a1,0x40001
40000348:	00c40793          	addi	a5,s0,12
4000034c:	0034                	addi	a3,sp,8
4000034e:	0050                	addi	a2,sp,4
40000350:	4d858593          	addi	a1,a1,1240 # 400014d8 <trap_msg+0xa8>
40000354:	0808                	addi	a0,sp,16
40000356:	9782                	jalr	a5
40000358:	4789                	li	a5,2
4000035a:	12f51d63          	bne	a0,a5,40000494 <uart_console+0x1b6>
4000035e:	4792                	lw	a5,4(sp)
40000360:	4722                	lw	a4,8(sp)
40000362:	c398                	sw	a4,0(a5)
40000364:	b76d                	j	4000030e <uart_console+0x30>
40000366:	400015b7          	lui	a1,0x40001
4000036a:	00c40793          	addi	a5,s0,12
4000036e:	0050                	addi	a2,sp,4
40000370:	4e058593          	addi	a1,a1,1248 # 400014e0 <trap_msg+0xb0>
40000374:	0808                	addi	a0,sp,16
40000376:	9782                	jalr	a5
40000378:	4785                	li	a5,1
4000037a:	10f51d63          	bne	a0,a5,40000494 <uart_console+0x1b6>
4000037e:	4792                	lw	a5,4(sp)
40000380:	40001537          	lui	a0,0x40001
40000384:	4e850513          	addi	a0,a0,1256 # 400014e8 <trap_msg+0xb8>
40000388:	438c                	lw	a1,0(a5)
4000038a:	9482                	jalr	s1
4000038c:	b749                	j	4000030e <uart_console+0x30>
4000038e:	400015b7          	lui	a1,0x40001
40000392:	00c40793          	addi	a5,s0,12
40000396:	0034                	addi	a3,sp,8
40000398:	0050                	addi	a2,sp,4
4000039a:	4f058593          	addi	a1,a1,1264 # 400014f0 <trap_msg+0xc0>
4000039e:	0808                	addi	a0,sp,16
400003a0:	9782                	jalr	a5
400003a2:	4789                	li	a5,2
400003a4:	0ef51863          	bne	a0,a5,40000494 <uart_console+0x1b6>
400003a8:	45a2                	lw	a1,8(sp)
400003aa:	4512                	lw	a0,4(sp)
400003ac:	01040793          	addi	a5,s0,16
400003b0:	4605                	li	a2,1
400003b2:	9782                	jalr	a5
400003b4:	fd29                	bnez	a0,4000030e <uart_console+0x30>
400003b6:	40001537          	lui	a0,0x40001
400003ba:	4fc50513          	addi	a0,a0,1276 # 400014fc <trap_msg+0xcc>
400003be:	9482                	jalr	s1
400003c0:	b7b9                	j	4000030e <uart_console+0x30>
400003c2:	fba90513          	addi	a0,s2,-70
400003c6:	0818                	addi	a4,sp,16
400003c8:	00153513          	seqz	a0,a0
400003cc:	400015b7          	lui	a1,0x40001
400003d0:	00c40793          	addi	a5,s0,12
400003d4:	0074                	addi	a3,sp,12
400003d6:	0050                	addi	a2,sp,4
400003d8:	50858593          	addi	a1,a1,1288 # 40001508 <trap_msg+0xd8>
400003dc:	953a                	add	a0,a0,a4
400003de:	9782                	jalr	a5
400003e0:	4789                	li	a5,2
400003e2:	0af51963          	bne	a0,a5,40000494 <uart_console+0x1b6>
400003e6:	4512                	lw	a0,4(sp)
400003e8:	400027b7          	lui	a5,0x40002
400003ec:	00f56763          	bltu	a0,a5,400003fa <uart_console+0x11c>
400003f0:	45b2                	lw	a1,12(sp)
400003f2:	00a587b3          	add	a5,a1,a0
400003f6:	00f56963          	bltu	a0,a5,40000408 <uart_console+0x12a>
400003fa:	40001537          	lui	a0,0x40001
400003fe:	51450513          	addi	a0,a0,1300 # 40001514 <trap_msg+0xe4>
40000402:	9482                	jalr	s1
40000404:	2191                	jal	40000848 <uart_flush>
40000406:	b721                	j	4000030e <uart_console+0x30>
40000408:	04600793          	li	a5,70
4000040c:	460d                	li	a2,3
4000040e:	00f90363          	beq	s2,a5,40000414 <uart_console+0x136>
40000412:	567d                	li	a2,-1
40000414:	02040793          	addi	a5,s0,32
40000418:	9782                	jalr	a5
4000041a:	bdd5                	j	4000030e <uart_console+0x30>
4000041c:	400015b7          	lui	a1,0x40001
40000420:	00c40793          	addi	a5,s0,12
40000424:	c402                	sw	zero,8(sp)
40000426:	0038                	addi	a4,sp,8
40000428:	0074                	addi	a3,sp,12
4000042a:	0050                	addi	a2,sp,4
4000042c:	52c58593          	addi	a1,a1,1324 # 4000152c <trap_msg+0xfc>
40000430:	0808                	addi	a0,sp,16
40000432:	9782                	jalr	a5
40000434:	1579                	addi	a0,a0,-2
40000436:	4785                	li	a5,1
40000438:	04a7ee63          	bltu	a5,a0,40000494 <uart_console+0x1b6>
4000043c:	45b2                	lw	a1,12(sp)
4000043e:	4512                	lw	a0,4(sp)
40000440:	02440793          	addi	a5,s0,36
40000444:	9782                	jalr	a5
40000446:	85aa                	mv	a1,a0
40000448:	892a                	mv	s2,a0
4000044a:	40001537          	lui	a0,0x40001
4000044e:	53c50513          	addi	a0,a0,1340 # 4000153c <trap_msg+0x10c>
40000452:	9482                	jalr	s1
40000454:	47a2                	lw	a5,8(sp)
40000456:	c791                	beqz	a5,40000462 <uart_console+0x184>
40000458:	8552                	mv	a0,s4
4000045a:	01278363          	beq	a5,s2,40000460 <uart_console+0x182>
4000045e:	8556                	mv	a0,s5
40000460:	9482                	jalr	s1
40000462:	00440793          	addi	a5,s0,4
40000466:	4529                	li	a0,10
40000468:	9782                	jalr	a5
4000046a:	b555                	j	4000030e <uart_console+0x30>
4000046c:	400015b7          	lui	a1,0x40001
40000470:	00c40793          	addi	a5,s0,12
40000474:	0050                	addi	a2,sp,4
40000476:	54058593          	addi	a1,a1,1344 # 40001540 <trap_msg+0x110>
4000047a:	0808                	addi	a0,sp,16
4000047c:	9782                	jalr	a5
4000047e:	4785                	li	a5,1
40000480:	00f51a63          	bne	a0,a5,40000494 <uart_console+0x1b6>
40000484:	0000100f          	fence.i
40000488:	67a1                	lui	a5,0x8
4000048a:	4709                	li	a4,2
4000048c:	c398                	sw	a4,0(a5)
4000048e:	4792                	lw	a5,4(sp)
40000490:	9782                	jalr	a5
40000492:	bdb5                	j	4000030e <uart_console+0x30>
40000494:	40001537          	lui	a0,0x40001
40000498:	54850513          	addi	a0,a0,1352 # 40001548 <trap_msg+0x118>
4000049c:	b79d                	j	40000402 <uart_console+0x124>

4000049e <wait>:
4000049e:	1141                	addi	sp,sp,-16
400004a0:	c62a                	sw	a0,12(sp)
400004a2:	47b2                	lw	a5,12(sp)
400004a4:	00f04463          	bgtz	a5,400004ac <wait+0xe>
400004a8:	0141                	addi	sp,sp,16
400004aa:	8082                	ret
400004ac:	47b2                	lw	a5,12(sp)
400004ae:	17fd                	addi	a5,a5,-1
400004b0:	c63e                	sw	a5,12(sp)
400004b2:	bfc5                	j	400004a2 <wait+0x4>

400004b4 <init_text_mode>:
400004b4:	67a5                	lui	a5,0x9
400004b6:	0007a623          	sw	zero,12(a5) # 900c <_start-0x3fff6ff4>
400004ba:	0007a823          	sw	zero,16(a5)
400004be:	477d                	li	a4,31
400004c0:	c7d8                	sw	a4,12(a5)
400004c2:	f4000713          	li	a4,-192
400004c6:	cb98                	sw	a4,16(a5)
400004c8:	400007b7          	lui	a5,0x40000
400004cc:	4f98                	lw	a4,24(a5)
400004ce:	6625                	lui	a2,0x9
400004d0:	08000793          	li	a5,128
400004d4:	1fc00593          	li	a1,508
400004d8:	c65c                	sw	a5,12(a2)
400004da:	4314                	lw	a3,0(a4)
400004dc:	0785                	addi	a5,a5,1
400004de:	0711                	addi	a4,a4,4
400004e0:	ca14                	sw	a3,16(a2)
400004e2:	feb79be3          	bne	a5,a1,400004d8 <init_text_mode+0x24>
400004e6:	0f001737          	lui	a4,0xf001
400004ea:	800007b7          	lui	a5,0x80000
400004ee:	f0070713          	addi	a4,a4,-256 # f000f00 <_start-0x30fff100>
400004f2:	800106b7          	lui	a3,0x80010
400004f6:	c398                	sw	a4,0(a5)
400004f8:	0791                	addi	a5,a5,4
400004fa:	fed79ee3          	bne	a5,a3,400004f6 <init_text_mode+0x42>
400004fe:	400047b7          	lui	a5,0x40004
40000502:	473d                	li	a4,15
40000504:	fee78823          	sb	a4,-16(a5) # 40003ff0 <__global_pointer$+0xfd1>
40000508:	fe07aa23          	sw	zero,-12(a5)
4000050c:	80000737          	lui	a4,0x80000
40000510:	67a5                	lui	a5,0x9
40000512:	c3d8                	sw	a4,4(a5)
40000514:	0007aa23          	sw	zero,20(a5) # 9014 <_start-0x3fff6fec>
40000518:	7f400713          	li	a4,2036
4000051c:	c398                	sw	a4,0(a5)
4000051e:	8082                	ret

40000520 <putc_impl>:
40000520:	400046b7          	lui	a3,0x40004
40000524:	4729                	li	a4,10
40000526:	ff46a783          	lw	a5,-12(a3) # 40003ff4 <__global_pointer$+0xfd5>
4000052a:	08e51a63          	bne	a0,a4,400005be <putc_impl+0x9e>
4000052e:	e007f793          	andi	a5,a5,-512
40000532:	20078793          	addi	a5,a5,512
40000536:	66c1                	lui	a3,0x10
40000538:	16fd                	addi	a3,a3,-1
4000053a:	00d7f633          	and	a2,a5,a3
4000053e:	1ff7f793          	andi	a5,a5,511
40000542:	e7a5                	bnez	a5,400005aa <putc_impl+0x8a>
40000544:	65a5                	lui	a1,0x9
40000546:	0045a883          	lw	a7,4(a1) # 9004 <_start-0x3fff6ffc>
4000054a:	41160733          	sub	a4,a2,a7
4000054e:	00d777b3          	and	a5,a4,a3
40000552:	4198                	lw	a4,0(a1)
40000554:	4589                	li	a1,2
40000556:	46f9                	li	a3,30
40000558:	8b0d                	andi	a4,a4,3
4000055a:	177d                	addi	a4,a4,-1
4000055c:	00e5e963          	bltu	a1,a4,4000056e <putc_impl+0x4e>
40000560:	400036b7          	lui	a3,0x40003
40000564:	82068693          	addi	a3,a3,-2016 # 40002820 <CSWTCH.30>
40000568:	9736                	add	a4,a4,a3
4000056a:	00074683          	lbu	a3,0(a4) # 80000000 <__global_pointer$+0x3fffcfe1>
4000056e:	fff68713          	addi	a4,a3,-1
40000572:	0726                	slli	a4,a4,0x9
40000574:	02f75b63          	bge	a4,a5,400005aa <putc_impl+0x8a>
40000578:	800006b7          	lui	a3,0x80000
4000057c:	00d605b3          	add	a1,a2,a3
40000580:	0f001837          	lui	a6,0xf001
40000584:	20068693          	addi	a3,a3,512 # 80000200 <__global_pointer$+0x3fffd1e1>
40000588:	96b2                	add	a3,a3,a2
4000058a:	f0080813          	addi	a6,a6,-256 # f000f00 <_start-0x30fff100>
4000058e:	0105a023          	sw	a6,0(a1)
40000592:	0591                	addi	a1,a1,4
40000594:	fed59de3          	bne	a1,a3,4000058e <putc_impl+0x6e>
40000598:	97c6                	add	a5,a5,a7
4000059a:	8f99                	sub	a5,a5,a4
4000059c:	07c2                	slli	a5,a5,0x10
4000059e:	80000737          	lui	a4,0x80000
400005a2:	83c1                	srli	a5,a5,0x10
400005a4:	97ba                	add	a5,a5,a4
400005a6:	6725                	lui	a4,0x9
400005a8:	c35c                	sw	a5,4(a4)
400005aa:	400047b7          	lui	a5,0x40004
400005ae:	fec7aa23          	sw	a2,-12(a5) # 40003ff4 <__global_pointer$+0xfd5>
400005b2:	6785                	lui	a5,0x1
400005b4:	43d4                	lw	a3,4(a5)
400005b6:	fe06cfe3          	bltz	a3,400005b4 <putc_impl+0x94>
400005ba:	c3c8                	sw	a0,4(a5)
400005bc:	8082                	ret
400005be:	80000737          	lui	a4,0x80000
400005c2:	4621                	li	a2,8
400005c4:	973e                	add	a4,a4,a5
400005c6:	02c51b63          	bne	a0,a2,400005fc <putc_impl+0xdc>
400005ca:	fe070f23          	sb	zero,-2(a4) # 7ffffffe <__global_pointer$+0x3fffcfdf>
400005ce:	ff06c683          	lbu	a3,-16(a3)
400005d2:	17f9                	addi	a5,a5,-2
400005d4:	fed70fa3          	sb	a3,-1(a4)
400005d8:	6705                	lui	a4,0x1
400005da:	4350                	lw	a2,4(a4)
400005dc:	00470693          	addi	a3,a4,4 # 1004 <_start-0x3fffeffc>
400005e0:	fe064de3          	bltz	a2,400005da <putc_impl+0xba>
400005e4:	4721                	li	a4,8
400005e6:	c298                	sw	a4,0(a3)
400005e8:	6705                	lui	a4,0x1
400005ea:	4350                	lw	a2,4(a4)
400005ec:	00470693          	addi	a3,a4,4 # 1004 <_start-0x3fffeffc>
400005f0:	fe064de3          	bltz	a2,400005ea <putc_impl+0xca>
400005f4:	02000713          	li	a4,32
400005f8:	c298                	sw	a4,0(a3)
400005fa:	bf35                	j	40000536 <putc_impl+0x16>
400005fc:	00a70023          	sb	a0,0(a4)
40000600:	ff06c683          	lbu	a3,-16(a3)
40000604:	0789                	addi	a5,a5,2
40000606:	00d700a3          	sb	a3,1(a4)
4000060a:	b735                	j	40000536 <putc_impl+0x16>

4000060c <print_number>:
4000060c:	7179                	addi	sp,sp,-48
4000060e:	d422                	sw	s0,40(sp)
40000610:	840a                	mv	s0,sp
40000612:	d04a                	sw	s2,32(sp)
40000614:	d606                	sw	ra,44(sp)
40000616:	d226                	sw	s1,36(sp)
40000618:	8922                	mv	s2,s0
4000061a:	ed19                	bnez	a0,40000638 <print_number+0x2c>
4000061c:	00c04e63          	bgtz	a2,40000638 <print_number+0x2c>
40000620:	400014b7          	lui	s1,0x40001
40000624:	77448493          	addi	s1,s1,1908 # 40001774 <trap_msg+0x344>
40000628:	03241163          	bne	s0,s2,4000064a <print_number+0x3e>
4000062c:	50b2                	lw	ra,44(sp)
4000062e:	5422                	lw	s0,40(sp)
40000630:	5492                	lw	s1,36(sp)
40000632:	5902                	lw	s2,32(sp)
40000634:	6145                	addi	sp,sp,48
40000636:	8082                	ret
40000638:	02b577b3          	remu	a5,a0,a1
4000063c:	0405                	addi	s0,s0,1
4000063e:	167d                	addi	a2,a2,-1
40000640:	02b55533          	divu	a0,a0,a1
40000644:	fef40fa3          	sb	a5,-1(s0)
40000648:	bfc9                	j	4000061a <print_number+0xe>
4000064a:	fff44783          	lbu	a5,-1(s0)
4000064e:	147d                	addi	s0,s0,-1
40000650:	97a6                	add	a5,a5,s1
40000652:	0007c503          	lbu	a0,0(a5) # 1000 <_start-0x3ffff000>
40000656:	35e9                	jal	40000520 <putc_impl>
40000658:	bfc1                	j	40000628 <print_number+0x1c>

4000065a <printf_impl>:
4000065a:	711d                	addi	sp,sp,-96
4000065c:	c6ce                	sw	s3,76(sp)
4000065e:	c4d2                	sw	s4,72(sp)
40000660:	c2d6                	sw	s5,68(sp)
40000662:	c0da                	sw	s6,64(sp)
40000664:	de5e                	sw	s7,60(sp)
40000666:	dc62                	sw	s8,56(sp)
40000668:	da66                	sw	s9,52(sp)
4000066a:	d86a                	sw	s10,48(sp)
4000066c:	ce86                	sw	ra,92(sp)
4000066e:	cca2                	sw	s0,88(sp)
40000670:	caa6                	sw	s1,84(sp)
40000672:	c8ca                	sw	s2,80(sp)
40000674:	832a                	mv	t1,a0
40000676:	ca2e                	sw	a1,20(sp)
40000678:	cc32                	sw	a2,24(sp)
4000067a:	ce36                	sw	a3,28(sp)
4000067c:	d03a                	sw	a4,32(sp)
4000067e:	d23e                	sw	a5,36(sp)
40000680:	d442                	sw	a6,40(sp)
40000682:	d646                	sw	a7,44(sp)
40000684:	01410993          	addi	s3,sp,20
40000688:	4a25                	li	s4,9
4000068a:	02500a93          	li	s5,37
4000068e:	06400b13          	li	s6,100
40000692:	07500b93          	li	s7,117
40000696:	07800c13          	li	s8,120
4000069a:	04200c93          	li	s9,66
4000069e:	06300d13          	li	s10,99
400006a2:	00034503          	lbu	a0,0(t1) # 40000000 <_start>
400006a6:	00130913          	addi	s2,t1,1
400006aa:	ed19                	bnez	a0,400006c8 <printf_impl+0x6e>
400006ac:	40f6                	lw	ra,92(sp)
400006ae:	4466                	lw	s0,88(sp)
400006b0:	44d6                	lw	s1,84(sp)
400006b2:	4946                	lw	s2,80(sp)
400006b4:	49b6                	lw	s3,76(sp)
400006b6:	4a26                	lw	s4,72(sp)
400006b8:	4a96                	lw	s5,68(sp)
400006ba:	4b06                	lw	s6,64(sp)
400006bc:	5bf2                	lw	s7,60(sp)
400006be:	5c62                	lw	s8,56(sp)
400006c0:	5cd2                	lw	s9,52(sp)
400006c2:	5d42                	lw	s10,48(sp)
400006c4:	6125                	addi	sp,sp,96
400006c6:	8082                	ret
400006c8:	03451063          	bne	a0,s4,400006e8 <printf_impl+0x8e>
400006cc:	02000513          	li	a0,32
400006d0:	3d81                	jal	40000520 <putc_impl>
400006d2:	02000513          	li	a0,32
400006d6:	35a9                	jal	40000520 <putc_impl>
400006d8:	02000513          	li	a0,32
400006dc:	3591                	jal	40000520 <putc_impl>
400006de:	02000513          	li	a0,32
400006e2:	3d3d                	jal	40000520 <putc_impl>
400006e4:	834a                	mv	t1,s2
400006e6:	bf75                	j	400006a2 <printf_impl+0x48>
400006e8:	ff551de3          	bne	a0,s5,400006e2 <printf_impl+0x88>
400006ec:	00134403          	lbu	s0,1(t1)
400006f0:	00230913          	addi	s2,t1,2
400006f4:	4605                	li	a2,1
400006f6:	01541963          	bne	s0,s5,40000708 <printf_impl+0xae>
400006fa:	02500513          	li	a0,37
400006fe:	b7d5                	j	400006e2 <printf_impl+0x88>
40000700:	00094403          	lbu	s0,0(s2)
40000704:	0905                	addi	s2,s2,1
40000706:	863e                	mv	a2,a5
40000708:	fd040793          	addi	a5,s0,-48
4000070c:	0ff7f713          	andi	a4,a5,255
40000710:	feea78e3          	bgeu	s4,a4,40000700 <printf_impl+0xa6>
40000714:	dc41                	beqz	s0,400006ac <printf_impl+0x52>
40000716:	0009a483          	lw	s1,0(s3)
4000071a:	03640c63          	beq	s0,s6,40000752 <printf_impl+0xf8>
4000071e:	008b6e63          	bltu	s6,s0,4000073a <printf_impl+0xe0>
40000722:	03940563          	beq	s0,s9,4000074c <printf_impl+0xf2>
40000726:	0ff4f513          	andi	a0,s1,255
4000072a:	01a40663          	beq	s0,s10,40000736 <printf_impl+0xdc>
4000072e:	02500513          	li	a0,37
40000732:	33fd                	jal	40000520 <putc_impl>
40000734:	8522                	mv	a0,s0
40000736:	33ed                	jal	40000520 <putc_impl>
40000738:	a801                	j	40000748 <printf_impl+0xee>
4000073a:	03740563          	beq	s0,s7,40000764 <printf_impl+0x10a>
4000073e:	45c1                	li	a1,16
40000740:	ff8417e3          	bne	s0,s8,4000072e <printf_impl+0xd4>
40000744:	8526                	mv	a0,s1
40000746:	35d9                	jal	4000060c <print_number>
40000748:	0991                	addi	s3,s3,4
4000074a:	bf69                	j	400006e4 <printf_impl+0x8a>
4000074c:	060e                	slli	a2,a2,0x3
4000074e:	4589                	li	a1,2
40000750:	bfd5                	j	40000744 <printf_impl+0xea>
40000752:	0004d963          	bgez	s1,40000764 <printf_impl+0x10a>
40000756:	02d00513          	li	a0,45
4000075a:	c632                	sw	a2,12(sp)
4000075c:	33d1                	jal	40000520 <putc_impl>
4000075e:	4632                	lw	a2,12(sp)
40000760:	409004b3          	neg	s1,s1
40000764:	45a9                	li	a1,10
40000766:	bff9                	j	40000744 <printf_impl+0xea>

40000768 <parse_int>:
40000768:	86aa                	mv	a3,a0
4000076a:	4325                	li	t1,9
4000076c:	4501                	li	a0,0
4000076e:	4815                	li	a6,5
40000770:	4290                	lw	a2,0(a3)
40000772:	00064703          	lbu	a4,0(a2) # 9000 <_start-0x3fff7000>
40000776:	fd070893          	addi	a7,a4,-48
4000077a:	0ff8f793          	andi	a5,a7,255
4000077e:	00f36963          	bltu	t1,a5,40000790 <parse_int+0x28>
40000782:	02a587b3          	mul	a5,a1,a0
40000786:	00f88533          	add	a0,a7,a5
4000078a:	0605                	addi	a2,a2,1
4000078c:	c290                	sw	a2,0(a3)
4000078e:	b7cd                	j	40000770 <parse_int+0x8>
40000790:	f9f70793          	addi	a5,a4,-97
40000794:	0ff7f793          	andi	a5,a5,255
40000798:	00f86963          	bltu	a6,a5,400007aa <parse_int+0x42>
4000079c:	02a587b3          	mul	a5,a1,a0
400007a0:	fa970713          	addi	a4,a4,-87
400007a4:	00f70533          	add	a0,a4,a5
400007a8:	b7cd                	j	4000078a <parse_int+0x22>
400007aa:	fbf70793          	addi	a5,a4,-65
400007ae:	0ff7f793          	andi	a5,a5,255
400007b2:	00f86763          	bltu	a6,a5,400007c0 <parse_int+0x58>
400007b6:	02a587b3          	mul	a5,a1,a0
400007ba:	fc970713          	addi	a4,a4,-55
400007be:	b7dd                	j	400007a4 <parse_int+0x3c>
400007c0:	8082                	ret

400007c2 <sscanf_impl>:
400007c2:	715d                	addi	sp,sp,-80
400007c4:	c62a                	sw	a0,12(sp)
400007c6:	0848                	addi	a0,sp,20
400007c8:	c4a2                	sw	s0,72(sp)
400007ca:	c2a6                	sw	s1,68(sp)
400007cc:	c0ca                	sw	s2,64(sp)
400007ce:	c686                	sw	ra,76(sp)
400007d0:	de4e                	sw	s3,60(sp)
400007d2:	dc52                	sw	s4,56(sp)
400007d4:	da56                	sw	s5,52(sp)
400007d6:	d602                	sw	zero,44(sp)
400007d8:	ca32                	sw	a2,20(sp)
400007da:	cc36                	sw	a3,24(sp)
400007dc:	ce3a                	sw	a4,28(sp)
400007de:	d03e                	sw	a5,32(sp)
400007e0:	d242                	sw	a6,36(sp)
400007e2:	d446                	sw	a7,40(sp)
400007e4:	842a                	mv	s0,a0
400007e6:	02500493          	li	s1,37
400007ea:	06400913          	li	s2,100
400007ee:	0005c783          	lbu	a5,0(a1)
400007f2:	ef81                	bnez	a5,4000080a <sscanf_impl+0x48>
400007f4:	40b6                	lw	ra,76(sp)
400007f6:	8d01                	sub	a0,a0,s0
400007f8:	4426                	lw	s0,72(sp)
400007fa:	4496                	lw	s1,68(sp)
400007fc:	4906                	lw	s2,64(sp)
400007fe:	59f2                	lw	s3,60(sp)
40000800:	5a62                	lw	s4,56(sp)
40000802:	5ad2                	lw	s5,52(sp)
40000804:	8509                	srai	a0,a0,0x2
40000806:	6161                	addi	sp,sp,80
40000808:	8082                	ret
4000080a:	02979563          	bne	a5,s1,40000834 <sscanf_impl+0x72>
4000080e:	0015c783          	lbu	a5,1(a1)
40000812:	00258993          	addi	s3,a1,2
40000816:	45a9                	li	a1,10
40000818:	01278363          	beq	a5,s2,4000081e <sscanf_impl+0x5c>
4000081c:	45c1                	li	a1,16
4000081e:	00052a83          	lw	s5,0(a0)
40000822:	00450a13          	addi	s4,a0,4
40000826:	0068                	addi	a0,sp,12
40000828:	3781                	jal	40000768 <parse_int>
4000082a:	00aaa023          	sw	a0,0(s5)
4000082e:	85ce                	mv	a1,s3
40000830:	8552                	mv	a0,s4
40000832:	bf75                	j	400007ee <sscanf_impl+0x2c>
40000834:	4732                	lw	a4,12(sp)
40000836:	00170693          	addi	a3,a4,1
4000083a:	c636                	sw	a3,12(sp)
4000083c:	00074703          	lbu	a4,0(a4)
40000840:	faf71ae3          	bne	a4,a5,400007f4 <sscanf_impl+0x32>
40000844:	0585                	addi	a1,a1,1
40000846:	b765                	j	400007ee <sscanf_impl+0x2c>

40000848 <uart_flush>:
40000848:	1141                	addi	sp,sp,-16
4000084a:	c422                	sw	s0,8(sp)
4000084c:	c606                	sw	ra,12(sp)
4000084e:	6405                	lui	s0,0x1
40000850:	6511                	lui	a0,0x4
40000852:	31b1                	jal	4000049e <wait>
40000854:	401c                	lw	a5,0(s0)
40000856:	0007d863          	bgez	a5,40000866 <uart_flush+0x1e>
4000085a:	40b2                	lw	ra,12(sp)
4000085c:	00042023          	sw	zero,0(s0) # 1000 <_start-0x3ffff000>
40000860:	4422                	lw	s0,8(sp)
40000862:	0141                	addi	sp,sp,16
40000864:	8082                	ret
40000866:	401c                	lw	a5,0(s0)
40000868:	fe07dfe3          	bgez	a5,40000866 <uart_flush+0x1e>
4000086c:	b7d5                	j	40000850 <uart_flush+0x8>

4000086e <uart_read>:
4000086e:	1101                	addi	sp,sp,-32
40000870:	6705                	lui	a4,0x1
40000872:	c64e                	sw	s3,12(sp)
40000874:	00872983          	lw	s3,8(a4) # 1008 <_start-0x3fffeff8>
40000878:	cc22                	sw	s0,24(sp)
4000087a:	ce06                	sw	ra,28(sp)
4000087c:	ca26                	sw	s1,20(sp)
4000087e:	c84a                	sw	s2,16(sp)
40000880:	c452                	sw	s4,8(sp)
40000882:	8432                	mv	s0,a2
40000884:	00064763          	bltz	a2,40000892 <uart_read+0x24>
40000888:	471c                	lw	a5,8(a4)
4000088a:	76c1                	lui	a3,0xffff0
4000088c:	8ff5                	and	a5,a5,a3
4000088e:	8fd1                	or	a5,a5,a2
40000890:	c71c                	sw	a5,8(a4)
40000892:	4481                	li	s1,0
40000894:	6a05                	lui	s4,0x1
40000896:	0ff00793          	li	a5,255
4000089a:	00b4cc63          	blt	s1,a1,400008b2 <uart_read+0x44>
4000089e:	4485                	li	s1,1
400008a0:	04044e63          	bltz	s0,400008fc <uart_read+0x8e>
400008a4:	6785                	lui	a5,0x1
400008a6:	0137a423          	sw	s3,8(a5) # 1008 <_start-0x3fffeff8>
400008aa:	00080537          	lui	a0,0x80
400008ae:	3ec5                	jal	4000049e <wait>
400008b0:	a0b1                	j	400008fc <uart_read+0x8e>
400008b2:	000a2903          	lw	s2,0(s4) # 1000 <_start-0x3ffff000>
400008b6:	fe094ee3          	bltz	s2,400008b2 <uart_read+0x44>
400008ba:	0127c863          	blt	a5,s2,400008ca <uart_read+0x5c>
400008be:	00950733          	add	a4,a0,s1
400008c2:	01270023          	sb	s2,0(a4)
400008c6:	0485                	addi	s1,s1,1
400008c8:	bfc9                	j	4000089a <uart_read+0x2c>
400008ca:	6721                	lui	a4,0x8
400008cc:	431c                	lw	a5,0(a4)
400008ce:	0047e793          	ori	a5,a5,4
400008d2:	c31c                	sw	a5,0(a4)
400008d4:	3f95                	jal	40000848 <uart_flush>
400008d6:	00044763          	bltz	s0,400008e4 <uart_read+0x76>
400008da:	013a2423          	sw	s3,8(s4)
400008de:	00080537          	lui	a0,0x80
400008e2:	3e75                	jal	4000049e <wait>
400008e4:	40001537          	lui	a0,0x40001
400008e8:	400007b7          	lui	a5,0x40000
400008ec:	8626                	mv	a2,s1
400008ee:	40895593          	srai	a1,s2,0x8
400008f2:	78850513          	addi	a0,a0,1928 # 40001788 <trap_msg+0x358>
400008f6:	07a1                	addi	a5,a5,8
400008f8:	9782                	jalr	a5
400008fa:	4481                	li	s1,0
400008fc:	40f2                	lw	ra,28(sp)
400008fe:	4462                	lw	s0,24(sp)
40000900:	4942                	lw	s2,16(sp)
40000902:	49b2                	lw	s3,12(sp)
40000904:	4a22                	lw	s4,8(sp)
40000906:	8526                	mv	a0,s1
40000908:	44d2                	lw	s1,20(sp)
4000090a:	6105                	addi	sp,sp,32
4000090c:	8082                	ret

4000090e <gets_impl>:
4000090e:	7179                	addi	sp,sp,-48
40000910:	ce4e                	sw	s3,28(sp)
40000912:	400009b7          	lui	s3,0x40000
40000916:	d226                	sw	s1,36(sp)
40000918:	d04a                	sw	s2,32(sp)
4000091a:	cc52                	sw	s4,24(sp)
4000091c:	ca56                	sw	s5,20(sp)
4000091e:	c85a                	sw	s6,16(sp)
40000920:	c65e                	sw	s7,12(sp)
40000922:	d606                	sw	ra,44(sp)
40000924:	d422                	sw	s0,40(sp)
40000926:	8a2a                	mv	s4,a0
40000928:	892e                	mv	s2,a1
4000092a:	4481                	li	s1,0
4000092c:	40004bb7          	lui	s7,0x40004
40000930:	80000ab7          	lui	s5,0x80000
40000934:	6b05                	lui	s6,0x1
40000936:	0991                	addi	s3,s3,4
40000938:	ff4ba783          	lw	a5,-12(s7) # 40003ff4 <__global_pointer$+0xfd5>
4000093c:	ff0bc703          	lbu	a4,-16(s7)
40000940:	97d6                	add	a5,a5,s5
40000942:	00e780a3          	sb	a4,1(a5) # 40000001 <_start+0x1>
40000946:	c01026f3          	rdtime	a3
4000094a:	00c69613          	slli	a2,a3,0xc
4000094e:	05f00713          	li	a4,95
40000952:	00064363          	bltz	a2,40000958 <gets_impl+0x4a>
40000956:	4701                	li	a4,0
40000958:	00e78023          	sb	a4,0(a5)
4000095c:	000b2403          	lw	s0,0(s6) # 1000 <_start-0x3ffff000>
40000960:	fe0443e3          	bltz	s0,40000946 <gets_impl+0x38>
40000964:	00078023          	sb	zero,0(a5)
40000968:	0ff00793          	li	a5,255
4000096c:	0087d763          	bge	a5,s0,4000097a <gets_impl+0x6c>
40000970:	6721                	lui	a4,0x8
40000972:	431c                	lw	a5,0(a4)
40000974:	0047e793          	ori	a5,a5,4
40000978:	c31c                	sw	a5,0(a4)
4000097a:	0ff47413          	andi	s0,s0,255
4000097e:	47b5                	li	a5,13
40000980:	04f40c63          	beq	s0,a5,400009d8 <gets_impl+0xca>
40000984:	47a1                	li	a5,8
40000986:	02f41563          	bne	s0,a5,400009b0 <gets_impl+0xa2>
4000098a:	00905563          	blez	s1,40000994 <gets_impl+0x86>
4000098e:	4521                	li	a0,8
40000990:	14fd                	addi	s1,s1,-1
40000992:	9982                	jalr	s3
40000994:	fb24c2e3          	blt	s1,s2,40000938 <gets_impl+0x2a>
40000998:	8526                	mv	a0,s1
4000099a:	50b2                	lw	ra,44(sp)
4000099c:	5422                	lw	s0,40(sp)
4000099e:	5492                	lw	s1,36(sp)
400009a0:	5902                	lw	s2,32(sp)
400009a2:	49f2                	lw	s3,28(sp)
400009a4:	4a62                	lw	s4,24(sp)
400009a6:	4ad2                	lw	s5,20(sp)
400009a8:	4b42                	lw	s6,16(sp)
400009aa:	4bb2                	lw	s7,12(sp)
400009ac:	6145                	addi	sp,sp,48
400009ae:	8082                	ret
400009b0:	47fd                	li	a5,31
400009b2:	0087e563          	bltu	a5,s0,400009bc <gets_impl+0xae>
400009b6:	47a9                	li	a5,10
400009b8:	fcf41ee3          	bne	s0,a5,40000994 <gets_impl+0x86>
400009bc:	8522                	mv	a0,s0
400009be:	9982                	jalr	s3
400009c0:	00148513          	addi	a0,s1,1
400009c4:	94d2                	add	s1,s1,s4
400009c6:	00848023          	sb	s0,0(s1)
400009ca:	fd2558e3          	bge	a0,s2,4000099a <gets_impl+0x8c>
400009ce:	47a9                	li	a5,10
400009d0:	fcf405e3          	beq	s0,a5,4000099a <gets_impl+0x8c>
400009d4:	84aa                	mv	s1,a0
400009d6:	b78d                	j	40000938 <gets_impl+0x2a>
400009d8:	4429                	li	s0,10
400009da:	b7cd                	j	400009bc <gets_impl+0xae>

400009dc <crc32_impl>:
400009dc:	7139                	addi	sp,sp,-64
400009de:	edb88637          	lui	a2,0xedb88
400009e2:	868a                	mv	a3,sp
400009e4:	4701                	li	a4,0
400009e6:	32060613          	addi	a2,a2,800 # edb88320 <__global_pointer$+0xadb85301>
400009ea:	4e41                	li	t3,16
400009ec:	88ba                	mv	a7,a4
400009ee:	4811                	li	a6,4
400009f0:	4781                	li	a5,0
400009f2:	00f8c333          	xor	t1,a7,a5
400009f6:	00137313          	andi	t1,t1,1
400009fa:	8385                	srli	a5,a5,0x1
400009fc:	00030363          	beqz	t1,40000a02 <crc32_impl+0x26>
40000a00:	8fb1                	xor	a5,a5,a2
40000a02:	187d                	addi	a6,a6,-1
40000a04:	0018d893          	srli	a7,a7,0x1
40000a08:	fe0815e3          	bnez	a6,400009f2 <crc32_impl+0x16>
40000a0c:	c29c                	sw	a5,0(a3)
40000a0e:	0705                	addi	a4,a4,1
40000a10:	0691                	addi	a3,a3,4
40000a12:	fdc71de3          	bne	a4,t3,400009ec <crc32_impl+0x10>
40000a16:	4681                	li	a3,0
40000a18:	57fd                	li	a5,-1
40000a1a:	00b6c663          	blt	a3,a1,40000a26 <crc32_impl+0x4a>
40000a1e:	fff7c513          	not	a0,a5
40000a22:	6121                	addi	sp,sp,64
40000a24:	8082                	ret
40000a26:	00d50733          	add	a4,a0,a3
40000a2a:	00074703          	lbu	a4,0(a4) # 8000 <_start-0x3fff8000>
40000a2e:	0047d613          	srli	a2,a5,0x4
40000a32:	04010813          	addi	a6,sp,64
40000a36:	8fb9                	xor	a5,a5,a4
40000a38:	8bbd                	andi	a5,a5,15
40000a3a:	078a                	slli	a5,a5,0x2
40000a3c:	97c2                	add	a5,a5,a6
40000a3e:	fc07a783          	lw	a5,-64(a5)
40000a42:	8311                	srli	a4,a4,0x4
40000a44:	0685                	addi	a3,a3,1
40000a46:	8e3d                	xor	a2,a2,a5
40000a48:	8f31                	xor	a4,a4,a2
40000a4a:	8b3d                	andi	a4,a4,15
40000a4c:	070a                	slli	a4,a4,0x2
40000a4e:	9742                	add	a4,a4,a6
40000a50:	fc072703          	lw	a4,-64(a4)
40000a54:	00465793          	srli	a5,a2,0x4
40000a58:	8fb9                	xor	a5,a5,a4
40000a5a:	b7c1                	j	40000a1a <crc32_impl+0x3e>

40000a5c <command>:
40000a5c:	67a1                	lui	a5,0x8
40000a5e:	670d                	lui	a4,0x3
40000a60:	04078793          	addi	a5,a5,64 # 8040 <_start-0x3fff7fc0>
40000a64:	c34c                	sw	a1,4(a4)
40000a66:	8d5d                	or	a0,a0,a5
40000a68:	c308                	sw	a0,0(a4)
40000a6a:	00105737          	lui	a4,0x105
40000a6e:	668d                	lui	a3,0x3
40000a70:	80070713          	addi	a4,a4,-2048 # 104800 <_start-0x3fefb800>
40000a74:	429c                	lw	a5,0(a3)
40000a76:	8ff9                	and	a5,a5,a4
40000a78:	fff5                	bnez	a5,40000a74 <command+0x18>
40000a7a:	42c8                	lw	a0,4(a3)
40000a7c:	8082                	ret

40000a7e <receive_sector>:
40000a7e:	20050793          	addi	a5,a0,512
40000a82:	00f51363          	bne	a0,a5,40000a88 <receive_sector+0xa>
40000a86:	8082                	ret
40000a88:	4198                	lw	a4,0(a1)
40000a8a:	0541                	addi	a0,a0,16
40000a8c:	fee52823          	sw	a4,-16(a0)
40000a90:	4198                	lw	a4,0(a1)
40000a92:	fee52a23          	sw	a4,-12(a0)
40000a96:	4198                	lw	a4,0(a1)
40000a98:	fee52c23          	sw	a4,-8(a0)
40000a9c:	4198                	lw	a4,0(a1)
40000a9e:	fee52e23          	sw	a4,-4(a0)
40000aa2:	b7c5                	j	40000a82 <receive_sector+0x4>

40000aa4 <postwrite_wait>:
40000aa4:	1141                	addi	sp,sp,-16
40000aa6:	c422                	sw	s0,8(sp)
40000aa8:	00989437          	lui	s0,0x989
40000aac:	c226                	sw	s1,4(sp)
40000aae:	c606                	sw	ra,12(sp)
40000ab0:	68140413          	addi	s0,s0,1665 # 989681 <_start-0x3f67697f>
40000ab4:	400044b7          	lui	s1,0x40004
40000ab8:	fe84a583          	lw	a1,-24(s1) # 40003fe8 <__global_pointer$+0xfc9>
40000abc:	10d00513          	li	a0,269
40000ac0:	3f71                	jal	40000a5c <command>
40000ac2:	10057513          	andi	a0,a0,256
40000ac6:	ed19                	bnez	a0,40000ae4 <postwrite_wait+0x40>
40000ac8:	147d                	addi	s0,s0,-1
40000aca:	f47d                	bnez	s0,40000ab8 <postwrite_wait+0x14>
40000acc:	4422                	lw	s0,8(sp)
40000ace:	40b2                	lw	ra,12(sp)
40000ad0:	4492                	lw	s1,4(sp)
40000ad2:	40001537          	lui	a0,0x40001
40000ad6:	40000337          	lui	t1,0x40000
40000ada:	79c50513          	addi	a0,a0,1948 # 4000179c <trap_msg+0x36c>
40000ade:	0321                	addi	t1,t1,8
40000ae0:	0141                	addi	sp,sp,16
40000ae2:	8302                	jr	t1
40000ae4:	40b2                	lw	ra,12(sp)
40000ae6:	4422                	lw	s0,8(sp)
40000ae8:	4492                	lw	s1,4(sp)
40000aea:	0141                	addi	sp,sp,16
40000aec:	8082                	ret

40000aee <init_sdcard>:
40000aee:	7179                	addi	sp,sp,-48
40000af0:	d422                	sw	s0,40(sp)
40000af2:	40001537          	lui	a0,0x40001
40000af6:	40000437          	lui	s0,0x40000
40000afa:	d606                	sw	ra,44(sp)
40000afc:	d226                	sw	s1,36(sp)
40000afe:	d04a                	sw	s2,32(sp)
40000b00:	ce4e                	sw	s3,28(sp)
40000b02:	0421                	addi	s0,s0,8
40000b04:	7b850513          	addi	a0,a0,1976 # 400017b8 <trap_msg+0x388>
40000b08:	9402                	jalr	s0
40000b0a:	670d                	lui	a4,0x3
40000b0c:	431c                	lw	a5,0(a4)
40000b0e:	00c79693          	slli	a3,a5,0xc
40000b12:	0206d063          	bgez	a3,40000b32 <init_sdcard+0x44>
40000b16:	40001537          	lui	a0,0x40001
40000b1a:	7c450513          	addi	a0,a0,1988 # 400017c4 <trap_msg+0x394>
40000b1e:	9402                	jalr	s0
40000b20:	4481                	li	s1,0
40000b22:	50b2                	lw	ra,44(sp)
40000b24:	5422                	lw	s0,40(sp)
40000b26:	5902                	lw	s2,32(sp)
40000b28:	49f2                	lw	s3,28(sp)
40000b2a:	8526                	mv	a0,s1
40000b2c:	5492                	lw	s1,36(sp)
40000b2e:	6145                	addi	sp,sp,48
40000b30:	8082                	ret
40000b32:	090037b7          	lui	a5,0x9003
40000b36:	0789                	addi	a5,a5,2
40000b38:	cb1c                	sw	a5,16(a4)
40000b3a:	640d                	lui	s0,0x3
40000b3c:	4709                	li	a4,2
40000b3e:	481c                	lw	a5,16(s0)
40000b40:	0ff7f793          	andi	a5,a5,255
40000b44:	fee79de3          	bne	a5,a4,40000b3e <init_sdcard+0x50>
40000b48:	4581                	li	a1,0
40000b4a:	00040537          	lui	a0,0x40
40000b4e:	3739                	jal	40000a5c <command>
40000b50:	1a500593          	li	a1,421
40000b54:	10800513          	li	a0,264
40000b58:	3711                	jal	40000a5c <command>
40000b5a:	0ff57513          	andi	a0,a0,255
40000b5e:	0a500793          	li	a5,165
40000b62:	04f51163          	bne	a0,a5,40000ba4 <init_sdcard+0xb6>
40000b66:	4004                	lw	s1,0(s0)
40000b68:	67a1                	lui	a5,0x8
40000b6a:	8cfd                	and	s1,s1,a5
40000b6c:	ec85                	bnez	s1,40000ba4 <init_sdcard+0xb6>
40000b6e:	640d                	lui	s0,0x3
40000b70:	00038937          	lui	s2,0x38
40000b74:	69a1                	lui	s3,0x8
40000b76:	4581                	li	a1,0
40000b78:	13700513          	li	a0,311
40000b7c:	35c5                	jal	40000a5c <command>
40000b7e:	50ff85b7          	lui	a1,0x50ff8
40000b82:	12900513          	li	a0,297
40000b86:	3dd9                	jal	40000a5c <command>
40000b88:	401c                	lw	a5,0(s0)
40000b8a:	0127f7b3          	and	a5,a5,s2
40000b8e:	03379463          	bne	a5,s3,40000bb6 <init_sdcard+0xc8>
40000b92:	40001537          	lui	a0,0x40001
40000b96:	400007b7          	lui	a5,0x40000
40000b9a:	7e050513          	addi	a0,a0,2016 # 400017e0 <trap_msg+0x3b0>
40000b9e:	07a1                	addi	a5,a5,8
40000ba0:	9782                	jalr	a5
40000ba2:	b741                	j	40000b22 <init_sdcard+0x34>
40000ba4:	40001537          	lui	a0,0x40001
40000ba8:	400007b7          	lui	a5,0x40000
40000bac:	7d050513          	addi	a0,a0,2000 # 400017d0 <trap_msg+0x3a0>
40000bb0:	07a1                	addi	a5,a5,8
40000bb2:	9782                	jalr	a5
40000bb4:	b7b5                	j	40000b20 <init_sdcard+0x32>
40000bb6:	fc0550e3          	bgez	a0,40000b76 <init_sdcard+0x88>
40000bba:	4581                	li	a1,0
40000bbc:	20200513          	li	a0,514
40000bc0:	3d71                	jal	40000a5c <command>
40000bc2:	4418                	lw	a4,8(s0)
40000bc4:	441c                	lw	a5,8(s0)
40000bc6:	4414                	lw	a3,8(s0)
40000bc8:	4414                	lw	a3,8(s0)
40000bca:	00e10423          	sb	a4,8(sp)
40000bce:	0187d713          	srli	a4,a5,0x18
40000bd2:	00e104a3          	sb	a4,9(sp)
40000bd6:	0107d713          	srli	a4,a5,0x10
40000bda:	00e10523          	sb	a4,10(sp)
40000bde:	400009b7          	lui	s3,0x40000
40000be2:	0087d713          	srli	a4,a5,0x8
40000be6:	00e105a3          	sb	a4,11(sp)
40000bea:	00f10623          	sb	a5,12(sp)
40000bee:	0028                	addi	a0,sp,8
40000bf0:	000106a3          	sb	zero,13(sp)
40000bf4:	09a1                	addi	s3,s3,8
40000bf6:	9982                	jalr	s3
40000bf8:	4581                	li	a1,0
40000bfa:	10300513          	li	a0,259
40000bfe:	3db9                	jal	40000a5c <command>
40000c00:	77c1                	lui	a5,0xffff0
40000c02:	00f57933          	and	s2,a0,a5
40000c06:	85ca                	mv	a1,s2
40000c08:	20900513          	li	a0,521
40000c0c:	3d81                	jal	40000a5c <command>
40000c0e:	440c                	lw	a1,8(s0)
40000c10:	441c                	lw	a5,8(s0)
40000c12:	4418                	lw	a4,8(s0)
40000c14:	4414                	lw	a3,8(s0)
40000c16:	81f9                	srli	a1,a1,0x1e
40000c18:	4685                	li	a3,1
40000c1a:	00d58863          	beq	a1,a3,40000c2a <init_sdcard+0x13c>
40000c1e:	40001537          	lui	a0,0x40001
40000c22:	7f850513          	addi	a0,a0,2040 # 400017f8 <trap_msg+0x3c8>
40000c26:	9982                	jalr	s3
40000c28:	bded                	j	40000b22 <init_sdcard+0x34>
40000c2a:	003f06b7          	lui	a3,0x3f0
40000c2e:	07c2                	slli	a5,a5,0x10
40000c30:	8ff5                	and	a5,a5,a3
40000c32:	8341                	srli	a4,a4,0x10
40000c34:	8fd9                	or	a5,a5,a4
40000c36:	0785                	addi	a5,a5,1
40000c38:	00a79493          	slli	s1,a5,0xa
40000c3c:	40002537          	lui	a0,0x40002
40000c40:	00b4d593          	srli	a1,s1,0xb
40000c44:	81850513          	addi	a0,a0,-2024 # 40001818 <trap_msg+0x3e8>
40000c48:	9982                	jalr	s3
40000c4a:	85ca                	mv	a1,s2
40000c4c:	30700513          	li	a0,775
40000c50:	3531                	jal	40000a5c <command>
40000c52:	85ca                	mv	a1,s2
40000c54:	13700513          	li	a0,311
40000c58:	3511                	jal	40000a5c <command>
40000c5a:	4589                	li	a1,2
40000c5c:	10600513          	li	a0,262
40000c60:	3bf5                	jal	40000a5c <command>
40000c62:	481c                	lw	a5,16(s0)
40000c64:	f1000737          	lui	a4,0xf1000
40000c68:	177d                	addi	a4,a4,-1
40000c6a:	8ff9                	and	a5,a5,a4
40000c6c:	09000737          	lui	a4,0x9000
40000c70:	40070713          	addi	a4,a4,1024 # 9000400 <_start-0x36fffc00>
40000c74:	8fd9                	or	a5,a5,a4
40000c76:	c81c                	sw	a5,16(s0)
40000c78:	668d                	lui	a3,0x3
40000c7a:	4a98                	lw	a4,16(a3)
40000c7c:	8f3d                	xor	a4,a4,a5
40000c7e:	0ff77713          	andi	a4,a4,255
40000c82:	ff65                	bnez	a4,40000c7a <init_sdcard+0x18c>
40000c84:	400047b7          	lui	a5,0x40004
40000c88:	ff27a423          	sw	s2,-24(a5) # 40003fe8 <__global_pointer$+0xfc9>
40000c8c:	bd59                	j	40000b22 <init_sdcard+0x34>

40000c8e <sdread_impl>:
40000c8e:	7179                	addi	sp,sp,-48
40000c90:	d422                	sw	s0,40(sp)
40000c92:	d606                	sw	ra,44(sp)
40000c94:	d226                	sw	s1,36(sp)
40000c96:	d04a                	sw	s2,32(sp)
40000c98:	ce4e                	sw	s3,28(sp)
40000c9a:	cc52                	sw	s4,24(sp)
40000c9c:	ca56                	sw	s5,20(sp)
40000c9e:	c85a                	sw	s6,16(sp)
40000ca0:	c65e                	sw	s7,12(sp)
40000ca2:	c462                	sw	s8,8(sp)
40000ca4:	c266                	sw	s9,4(sp)
40000ca6:	c06a                	sw	s10,0(sp)
40000ca8:	8432                	mv	s0,a2
40000caa:	c631                	beqz	a2,40000cf6 <sdread_impl+0x68>
40000cac:	84aa                	mv	s1,a0
40000cae:	6505                	lui	a0,0x1
40000cb0:	8aae                	mv	s5,a1
40000cb2:	95150513          	addi	a0,a0,-1711 # 951 <_start-0x3ffff6af>
40000cb6:	6905                	lui	s2,0x1
40000cb8:	698d                	lui	s3,0x3
40000cba:	00105b37          	lui	s6,0x105
40000cbe:	3b79                	jal	40000a5c <command>
40000cc0:	4a01                	li	s4,0
40000cc2:	fff40b93          	addi	s7,s0,-1 # 2fff <_start-0x3fffd001>
40000cc6:	0a85                	addi	s5,s5,1
40000cc8:	6c05                	lui	s8,0x1
40000cca:	95190c93          	addi	s9,s2,-1711 # 951 <_start-0x3ffff6af>
40000cce:	01898d13          	addi	s10,s3,24 # 3018 <_start-0x3fffcfe8>
40000cd2:	800b0b13          	addi	s6,s6,-2048 # 104800 <_start-0x3fefb800>
40000cd6:	037a6f63          	bltu	s4,s7,40000d14 <sdread_impl+0x86>
40000cda:	678d                	lui	a5,0x3
40000cdc:	4398                	lw	a4,0(a5)
40000cde:	01071693          	slli	a3,a4,0x10
40000ce2:	0606ca63          	bltz	a3,40000d56 <sdread_impl+0xc8>
40000ce6:	01878593          	addi	a1,a5,24 # 3018 <_start-0x3fffcfe8>
40000cea:	00091463          	bnez	s2,40000cf2 <sdread_impl+0x64>
40000cee:	01c78593          	addi	a1,a5,28
40000cf2:	8526                	mv	a0,s1
40000cf4:	3369                	jal	40000a7e <receive_sector>
40000cf6:	50b2                	lw	ra,44(sp)
40000cf8:	8522                	mv	a0,s0
40000cfa:	5422                	lw	s0,40(sp)
40000cfc:	5492                	lw	s1,36(sp)
40000cfe:	5902                	lw	s2,32(sp)
40000d00:	49f2                	lw	s3,28(sp)
40000d02:	4a62                	lw	s4,24(sp)
40000d04:	4ad2                	lw	s5,20(sp)
40000d06:	4b42                	lw	s6,16(sp)
40000d08:	4bb2                	lw	s7,12(sp)
40000d0a:	4c22                	lw	s8,8(sp)
40000d0c:	4c92                	lw	s9,4(sp)
40000d0e:	4d02                	lw	s10,0(sp)
40000d10:	6145                	addi	sp,sp,48
40000d12:	8082                	ret
40000d14:	0009a783          	lw	a5,0(s3)
40000d18:	01079713          	slli	a4,a5,0x10
40000d1c:	02074b63          	bltz	a4,40000d52 <sdread_impl+0xc4>
40000d20:	014a87b3          	add	a5,s5,s4
40000d24:	00f9a223          	sw	a5,4(s3)
40000d28:	019967b3          	or	a5,s2,s9
40000d2c:	00f9a023          	sw	a5,0(s3)
40000d30:	85ea                	mv	a1,s10
40000d32:	00091463          	bnez	s2,40000d3a <sdread_impl+0xac>
40000d36:	01c98593          	addi	a1,s3,28
40000d3a:	8526                	mv	a0,s1
40000d3c:	3389                	jal	40000a7e <receive_sector>
40000d3e:	84aa                	mv	s1,a0
40000d40:	0009a783          	lw	a5,0(s3)
40000d44:	0167f7b3          	and	a5,a5,s6
40000d48:	ffe5                	bnez	a5,40000d40 <sdread_impl+0xb2>
40000d4a:	01894933          	xor	s2,s2,s8
40000d4e:	0a05                	addi	s4,s4,1
40000d50:	b759                	j	40000cd6 <sdread_impl+0x48>
40000d52:	8452                	mv	s0,s4
40000d54:	b74d                	j	40000cf6 <sdread_impl+0x68>
40000d56:	845e                	mv	s0,s7
40000d58:	bf79                	j	40000cf6 <sdread_impl+0x68>

40000d5a <sdwrite_impl>:
40000d5a:	7139                	addi	sp,sp,-64
40000d5c:	da26                	sw	s1,52(sp)
40000d5e:	de06                	sw	ra,60(sp)
40000d60:	dc22                	sw	s0,56(sp)
40000d62:	d84a                	sw	s2,48(sp)
40000d64:	d64e                	sw	s3,44(sp)
40000d66:	d452                	sw	s4,40(sp)
40000d68:	d256                	sw	s5,36(sp)
40000d6a:	d05a                	sw	s6,32(sp)
40000d6c:	ce5e                	sw	s7,28(sp)
40000d6e:	cc62                	sw	s8,24(sp)
40000d70:	ca66                	sw	s9,20(sp)
40000d72:	c86a                	sw	s10,16(sp)
40000d74:	c66e                	sw	s11,12(sp)
40000d76:	84b2                	mv	s1,a2
40000d78:	ce31                	beqz	a2,40000dd4 <sdwrite_impl+0x7a>
40000d7a:	8aae                	mv	s5,a1
40000d7c:	20050693          	addi	a3,a0,512
40000d80:	87aa                	mv	a5,a0
40000d82:	670d                	lui	a4,0x3
40000d84:	4390                	lw	a2,0(a5)
40000d86:	0791                	addi	a5,a5,4
40000d88:	01870b13          	addi	s6,a4,24 # 3018 <_start-0x3fffcfe8>
40000d8c:	cf10                	sw	a2,24(a4)
40000d8e:	fed79be3          	bne	a5,a3,40000d84 <sdwrite_impl+0x2a>
40000d92:	6a25                	lui	s4,0x9
40000d94:	698d                	lui	s3,0x3
40000d96:	00105c37          	lui	s8,0x105
40000d9a:	40050413          	addi	s0,a0,1024
40000d9e:	4901                	li	s2,0
40000da0:	4781                	li	a5,0
40000da2:	fff48b93          	addi	s7,s1,-1
40000da6:	d58a0a13          	addi	s4,s4,-680 # 8d58 <_start-0x3fff72a8>
40000daa:	6c85                	lui	s9,0x1
40000dac:	01c98d13          	addi	s10,s3,28 # 301c <_start-0x3fffcfe4>
40000db0:	800c0c13          	addi	s8,s8,-2048 # 104800 <_start-0x3fefb800>
40000db4:	e0040713          	addi	a4,s0,-512
40000db8:	015905b3          	add	a1,s2,s5
40000dbc:	0147e533          	or	a0,a5,s4
40000dc0:	03796a63          	bltu	s2,s7,40000df4 <sdwrite_impl+0x9a>
40000dc4:	3961                	jal	40000a5c <command>
40000dc6:	678d                	lui	a5,0x3
40000dc8:	439c                	lw	a5,0(a5)
40000dca:	01079713          	slli	a4,a5,0x10
40000dce:	06074563          	bltz	a4,40000e38 <sdwrite_impl+0xde>
40000dd2:	39c9                	jal	40000aa4 <postwrite_wait>
40000dd4:	50f2                	lw	ra,60(sp)
40000dd6:	5462                	lw	s0,56(sp)
40000dd8:	5942                	lw	s2,48(sp)
40000dda:	59b2                	lw	s3,44(sp)
40000ddc:	5a22                	lw	s4,40(sp)
40000dde:	5a92                	lw	s5,36(sp)
40000de0:	5b02                	lw	s6,32(sp)
40000de2:	4bf2                	lw	s7,28(sp)
40000de4:	4c62                	lw	s8,24(sp)
40000de6:	4cd2                	lw	s9,20(sp)
40000de8:	4d42                	lw	s10,16(sp)
40000dea:	4db2                	lw	s11,12(sp)
40000dec:	8526                	mv	a0,s1
40000dee:	54d2                	lw	s1,52(sp)
40000df0:	6121                	addi	sp,sp,64
40000df2:	8082                	ret
40000df4:	00b9a223          	sw	a1,4(s3)
40000df8:	00a9a023          	sw	a0,0(s3)
40000dfc:	0197cdb3          	xor	s11,a5,s9
40000e00:	86ea                	mv	a3,s10
40000e02:	01979363          	bne	a5,s9,40000e08 <sdwrite_impl+0xae>
40000e06:	86da                	mv	a3,s6
40000e08:	431c                	lw	a5,0(a4)
40000e0a:	0711                	addi	a4,a4,4
40000e0c:	c29c                	sw	a5,0(a3)
40000e0e:	fe871de3          	bne	a4,s0,40000e08 <sdwrite_impl+0xae>
40000e12:	0009a783          	lw	a5,0(s3)
40000e16:	0187f7b3          	and	a5,a5,s8
40000e1a:	ffe5                	bnez	a5,40000e12 <sdwrite_impl+0xb8>
40000e1c:	0009a783          	lw	a5,0(s3)
40000e20:	20040413          	addi	s0,s0,512
40000e24:	01079713          	slli	a4,a5,0x10
40000e28:	00074663          	bltz	a4,40000e34 <sdwrite_impl+0xda>
40000e2c:	39a5                	jal	40000aa4 <postwrite_wait>
40000e2e:	0905                	addi	s2,s2,1
40000e30:	87ee                	mv	a5,s11
40000e32:	b749                	j	40000db4 <sdwrite_impl+0x5a>
40000e34:	84ca                	mv	s1,s2
40000e36:	bf79                	j	40000dd4 <sdwrite_impl+0x7a>
40000e38:	84de                	mv	s1,s7
40000e3a:	bf69                	j	40000dd4 <sdwrite_impl+0x7a>

40000e3c <charmap>:
	...
40000e4c:	0000                	unimp
40000e4e:	1010                	addi	a2,sp,32
40000e50:	1010                	addi	a2,sp,32
40000e52:	1010                	addi	a2,sp,32
40000e54:	0010                	0x10
40000e56:	1010                	addi	a2,sp,32
40000e58:	0000                	unimp
40000e5a:	0000                	unimp
40000e5c:	2400                	fld	fs0,8(s0)
40000e5e:	2424                	fld	fs1,72(s0)
	...
40000e6c:	0000                	unimp
40000e6e:	2424                	fld	fs1,72(s0)
40000e70:	7e24                	flw	fs1,120(a2)
40000e72:	2424                	fld	fs1,72(s0)
40000e74:	247e                	fld	fs0,472(sp)
40000e76:	2424                	fld	fs1,72(s0)
40000e78:	0000                	unimp
40000e7a:	0000                	unimp
40000e7c:	1000                	addi	s0,sp,32
40000e7e:	7c10                	flw	fa2,56(s0)
40000e80:	9092                	add	ra,ra,tp
40000e82:	7c90                	flw	fa2,56(s1)
40000e84:	1212                	slli	tp,tp,0x24
40000e86:	7c92                	flw	fs9,36(sp)
40000e88:	1010                	addi	a2,sp,32
40000e8a:	0000                	unimp
40000e8c:	0000                	unimp
40000e8e:	9464                	0x9464
40000e90:	0868                	addi	a0,sp,28
40000e92:	1010                	addi	a2,sp,32
40000e94:	2c20                	fld	fs0,88(s0)
40000e96:	4c52                	lw	s8,20(sp)
40000e98:	0000                	unimp
40000e9a:	0000                	unimp
40000e9c:	0000                	unimp
40000e9e:	2418                	fld	fa4,8(s0)
40000ea0:	1824                	addi	s1,sp,56
40000ea2:	4a30                	lw	a2,80(a2)
40000ea4:	4444                	lw	s1,12(s0)
40000ea6:	3a44                	fld	fs1,176(a2)
40000ea8:	0000                	unimp
40000eaa:	0000                	unimp
40000eac:	1000                	addi	s0,sp,32
40000eae:	1010                	addi	a2,sp,32
	...
40000ebc:	0000                	unimp
40000ebe:	1008                	addi	a0,sp,32
40000ec0:	2020                	fld	fs0,64(s0)
40000ec2:	2020                	fld	fs0,64(s0)
40000ec4:	2020                	fld	fs0,64(s0)
40000ec6:	0810                	addi	a2,sp,16
40000ec8:	0000                	unimp
40000eca:	0000                	unimp
40000ecc:	0000                	unimp
40000ece:	1020                	addi	s0,sp,40
40000ed0:	0808                	addi	a0,sp,16
40000ed2:	0808                	addi	a0,sp,16
40000ed4:	0808                	addi	a0,sp,16
40000ed6:	2010                	fld	fa2,0(s0)
	...
40000ee0:	2400                	fld	fs0,8(s0)
40000ee2:	7e18                	flw	fa4,56(a2)
40000ee4:	2418                	fld	fa4,8(s0)
	...
40000eee:	0000                	unimp
40000ef0:	1000                	addi	s0,sp,32
40000ef2:	7c10                	flw	fa2,56(s0)
40000ef4:	1010                	addi	a2,sp,32
	...
40000f06:	1010                	addi	a2,sp,32
40000f08:	0020                	addi	s0,sp,8
	...
40000f12:	7e00                	flw	fs0,56(a2)
	...
40000f24:	0000                	unimp
40000f26:	1010                	addi	a2,sp,32
40000f28:	0000                	unimp
40000f2a:	0000                	unimp
40000f2c:	0000                	unimp
40000f2e:	0404                	addi	s1,sp,512
40000f30:	0808                	addi	a0,sp,16
40000f32:	1010                	addi	a2,sp,32
40000f34:	2020                	fld	fs0,64(s0)
40000f36:	4040                	lw	s0,4(s0)
40000f38:	0000                	unimp
40000f3a:	0000                	unimp
40000f3c:	0000                	unimp
40000f3e:	423c                	lw	a5,64(a2)
40000f40:	4642                	lw	a2,16(sp)
40000f42:	524a                	lw	tp,176(sp)
40000f44:	4262                	lw	tp,24(sp)
40000f46:	3c42                	fld	fs8,48(sp)
40000f48:	0000                	unimp
40000f4a:	0000                	unimp
40000f4c:	0000                	unimp
40000f4e:	1808                	addi	a0,sp,48
40000f50:	0828                	addi	a0,sp,24
40000f52:	0808                	addi	a0,sp,16
40000f54:	0808                	addi	a0,sp,16
40000f56:	3e08                	fld	fa0,56(a2)
40000f58:	0000                	unimp
40000f5a:	0000                	unimp
40000f5c:	0000                	unimp
40000f5e:	423c                	lw	a5,64(a2)
40000f60:	0242                	slli	tp,tp,0x10
40000f62:	0804                	addi	s1,sp,16
40000f64:	2010                	fld	fa2,0(s0)
40000f66:	7e40                	flw	fs0,60(a2)
40000f68:	0000                	unimp
40000f6a:	0000                	unimp
40000f6c:	0000                	unimp
40000f6e:	423c                	lw	a5,64(a2)
40000f70:	0242                	slli	tp,tp,0x10
40000f72:	021c                	addi	a5,sp,256
40000f74:	4202                	lw	tp,0(sp)
40000f76:	3c42                	fld	fs8,48(sp)
40000f78:	0000                	unimp
40000f7a:	0000                	unimp
40000f7c:	0000                	unimp
40000f7e:	0602                	c.slli64	a2
40000f80:	120a                	slli	tp,tp,0x22
40000f82:	4222                	lw	tp,8(sp)
40000f84:	027e                	slli	tp,tp,0x1f
40000f86:	0202                	c.slli64	tp
40000f88:	0000                	unimp
40000f8a:	0000                	unimp
40000f8c:	0000                	unimp
40000f8e:	407e                	0x407e
40000f90:	4040                	lw	s0,4(s0)
40000f92:	027c                	addi	a5,sp,268
40000f94:	0202                	c.slli64	tp
40000f96:	3c42                	fld	fs8,48(sp)
40000f98:	0000                	unimp
40000f9a:	0000                	unimp
40000f9c:	0000                	unimp
40000f9e:	201c                	fld	fa5,0(s0)
40000fa0:	4040                	lw	s0,4(s0)
40000fa2:	427c                	lw	a5,68(a2)
40000fa4:	4242                	lw	tp,16(sp)
40000fa6:	3c42                	fld	fs8,48(sp)
40000fa8:	0000                	unimp
40000faa:	0000                	unimp
40000fac:	0000                	unimp
40000fae:	027e                	slli	tp,tp,0x1f
40000fb0:	0402                	c.slli64	s0
40000fb2:	0804                	addi	s1,sp,16
40000fb4:	1008                	addi	a0,sp,32
40000fb6:	1010                	addi	a2,sp,32
40000fb8:	0000                	unimp
40000fba:	0000                	unimp
40000fbc:	0000                	unimp
40000fbe:	423c                	lw	a5,64(a2)
40000fc0:	4242                	lw	tp,16(sp)
40000fc2:	423c                	lw	a5,64(a2)
40000fc4:	4242                	lw	tp,16(sp)
40000fc6:	3c42                	fld	fs8,48(sp)
40000fc8:	0000                	unimp
40000fca:	0000                	unimp
40000fcc:	0000                	unimp
40000fce:	423c                	lw	a5,64(a2)
40000fd0:	4242                	lw	tp,16(sp)
40000fd2:	3e42                	fld	ft8,48(sp)
40000fd4:	0202                	c.slli64	tp
40000fd6:	3804                	fld	fs1,48(s0)
	...
40000fe0:	1000                	addi	s0,sp,32
40000fe2:	0010                	0x10
40000fe4:	0000                	unimp
40000fe6:	1010                	addi	a2,sp,32
	...
40000ff0:	1000                	addi	s0,sp,32
40000ff2:	0010                	0x10
40000ff4:	0000                	unimp
40000ff6:	1010                	addi	a2,sp,32
40000ff8:	0020                	addi	s0,sp,8
40000ffa:	0000                	unimp
40000ffc:	0000                	unimp
40000ffe:	0400                	addi	s0,sp,512
40001000:	1008                	addi	a0,sp,32
40001002:	4020                	lw	s0,64(s0)
40001004:	1020                	addi	s0,sp,40
40001006:	0408                	addi	a0,sp,512
	...
40001010:	7e00                	flw	fs0,56(a2)
40001012:	0000                	unimp
40001014:	007e                	c.slli	zero,0x1f
	...
4000101e:	4000                	lw	s0,0(s0)
40001020:	1020                	addi	s0,sp,40
40001022:	0408                	addi	a0,sp,512
40001024:	1008                	addi	a0,sp,32
40001026:	4020                	lw	s0,64(s0)
40001028:	0000                	unimp
4000102a:	0000                	unimp
4000102c:	0000                	unimp
4000102e:	423c                	lw	a5,64(a2)
40001030:	4242                	lw	tp,16(sp)
40001032:	0804                	addi	s1,sp,16
40001034:	0008                	0x8
40001036:	0808                	addi	a0,sp,16
40001038:	0000                	unimp
4000103a:	0000                	unimp
4000103c:	0000                	unimp
4000103e:	827c                	0x827c
40001040:	a29e                	fsd	ft7,320(sp)
40001042:	a2a2                	fsd	fs0,320(sp)
40001044:	9aa6                	add	s5,s5,s1
40001046:	7e80                	flw	fs0,56(a3)
40001048:	0000                	unimp
4000104a:	0000                	unimp
4000104c:	0000                	unimp
4000104e:	423c                	lw	a5,64(a2)
40001050:	4242                	lw	tp,16(sp)
40001052:	7e42                	flw	ft8,48(sp)
40001054:	4242                	lw	tp,16(sp)
40001056:	4242                	lw	tp,16(sp)
40001058:	0000                	unimp
4000105a:	0000                	unimp
4000105c:	0000                	unimp
4000105e:	427c                	lw	a5,68(a2)
40001060:	4242                	lw	tp,16(sp)
40001062:	427c                	lw	a5,68(a2)
40001064:	4242                	lw	tp,16(sp)
40001066:	7c42                	flw	fs8,48(sp)
40001068:	0000                	unimp
4000106a:	0000                	unimp
4000106c:	0000                	unimp
4000106e:	423c                	lw	a5,64(a2)
40001070:	4042                	0x4042
40001072:	4040                	lw	s0,4(s0)
40001074:	4240                	lw	s0,4(a2)
40001076:	3c42                	fld	fs8,48(sp)
40001078:	0000                	unimp
4000107a:	0000                	unimp
4000107c:	0000                	unimp
4000107e:	4478                	lw	a4,76(s0)
40001080:	4242                	lw	tp,16(sp)
40001082:	4242                	lw	tp,16(sp)
40001084:	4242                	lw	tp,16(sp)
40001086:	7844                	flw	fs1,52(s0)
40001088:	0000                	unimp
4000108a:	0000                	unimp
4000108c:	0000                	unimp
4000108e:	407e                	0x407e
40001090:	4040                	lw	s0,4(s0)
40001092:	4078                	lw	a4,68(s0)
40001094:	4040                	lw	s0,4(s0)
40001096:	7e40                	flw	fs0,60(a2)
40001098:	0000                	unimp
4000109a:	0000                	unimp
4000109c:	0000                	unimp
4000109e:	407e                	0x407e
400010a0:	4040                	lw	s0,4(s0)
400010a2:	4078                	lw	a4,68(s0)
400010a4:	4040                	lw	s0,4(s0)
400010a6:	4040                	lw	s0,4(s0)
400010a8:	0000                	unimp
400010aa:	0000                	unimp
400010ac:	0000                	unimp
400010ae:	423c                	lw	a5,64(a2)
400010b0:	4042                	0x4042
400010b2:	4e40                	lw	s0,28(a2)
400010b4:	4242                	lw	tp,16(sp)
400010b6:	3c42                	fld	fs8,48(sp)
400010b8:	0000                	unimp
400010ba:	0000                	unimp
400010bc:	0000                	unimp
400010be:	4242                	lw	tp,16(sp)
400010c0:	4242                	lw	tp,16(sp)
400010c2:	427e                	lw	tp,220(sp)
400010c4:	4242                	lw	tp,16(sp)
400010c6:	4242                	lw	tp,16(sp)
400010c8:	0000                	unimp
400010ca:	0000                	unimp
400010cc:	0000                	unimp
400010ce:	1038                	addi	a4,sp,40
400010d0:	1010                	addi	a2,sp,32
400010d2:	1010                	addi	a2,sp,32
400010d4:	1010                	addi	a2,sp,32
400010d6:	3810                	fld	fa2,48(s0)
400010d8:	0000                	unimp
400010da:	0000                	unimp
400010dc:	0000                	unimp
400010de:	040e                	slli	s0,s0,0x3
400010e0:	0404                	addi	s1,sp,512
400010e2:	0404                	addi	s1,sp,512
400010e4:	4404                	lw	s1,8(s0)
400010e6:	3844                	fld	fs1,176(s0)
400010e8:	0000                	unimp
400010ea:	0000                	unimp
400010ec:	0000                	unimp
400010ee:	4442                	lw	s0,16(sp)
400010f0:	5048                	lw	a0,36(s0)
400010f2:	6060                	flw	fs0,68(s0)
400010f4:	4850                	lw	a2,20(s0)
400010f6:	4244                	lw	s1,4(a2)
400010f8:	0000                	unimp
400010fa:	0000                	unimp
400010fc:	0000                	unimp
400010fe:	4040                	lw	s0,4(s0)
40001100:	4040                	lw	s0,4(s0)
40001102:	4040                	lw	s0,4(s0)
40001104:	4040                	lw	s0,4(s0)
40001106:	7e40                	flw	fs0,60(a2)
40001108:	0000                	unimp
4000110a:	0000                	unimp
4000110c:	0000                	unimp
4000110e:	c682                	sw	zero,76(sp)
40001110:	92aa                	add	t0,t0,a0
40001112:	8292                	mv	t0,tp
40001114:	8282                	jr	t0
40001116:	8282                	jr	t0
40001118:	0000                	unimp
4000111a:	0000                	unimp
4000111c:	0000                	unimp
4000111e:	4242                	lw	tp,16(sp)
40001120:	6242                	flw	ft4,16(sp)
40001122:	4a52                	lw	s4,20(sp)
40001124:	4246                	lw	tp,80(sp)
40001126:	4242                	lw	tp,16(sp)
40001128:	0000                	unimp
4000112a:	0000                	unimp
4000112c:	0000                	unimp
4000112e:	423c                	lw	a5,64(a2)
40001130:	4242                	lw	tp,16(sp)
40001132:	4242                	lw	tp,16(sp)
40001134:	4242                	lw	tp,16(sp)
40001136:	3c42                	fld	fs8,48(sp)
40001138:	0000                	unimp
4000113a:	0000                	unimp
4000113c:	0000                	unimp
4000113e:	427c                	lw	a5,68(a2)
40001140:	4242                	lw	tp,16(sp)
40001142:	7c42                	flw	fs8,48(sp)
40001144:	4040                	lw	s0,4(s0)
40001146:	4040                	lw	s0,4(s0)
40001148:	0000                	unimp
4000114a:	0000                	unimp
4000114c:	0000                	unimp
4000114e:	423c                	lw	a5,64(a2)
40001150:	4242                	lw	tp,16(sp)
40001152:	4242                	lw	tp,16(sp)
40001154:	4242                	lw	tp,16(sp)
40001156:	3c4a                	fld	fs8,176(sp)
40001158:	0002                	c.slli64	zero
4000115a:	0000                	unimp
4000115c:	0000                	unimp
4000115e:	427c                	lw	a5,68(a2)
40001160:	4242                	lw	tp,16(sp)
40001162:	7c42                	flw	fs8,48(sp)
40001164:	4850                	lw	a2,20(s0)
40001166:	4244                	lw	s1,4(a2)
40001168:	0000                	unimp
4000116a:	0000                	unimp
4000116c:	0000                	unimp
4000116e:	423c                	lw	a5,64(a2)
40001170:	4040                	lw	s0,4(s0)
40001172:	023c                	addi	a5,sp,264
40001174:	4202                	lw	tp,0(sp)
40001176:	3c42                	fld	fs8,48(sp)
40001178:	0000                	unimp
4000117a:	0000                	unimp
4000117c:	0000                	unimp
4000117e:	10fe                	slli	ra,ra,0x3f
40001180:	1010                	addi	a2,sp,32
40001182:	1010                	addi	a2,sp,32
40001184:	1010                	addi	a2,sp,32
40001186:	1010                	addi	a2,sp,32
40001188:	0000                	unimp
4000118a:	0000                	unimp
4000118c:	0000                	unimp
4000118e:	4242                	lw	tp,16(sp)
40001190:	4242                	lw	tp,16(sp)
40001192:	4242                	lw	tp,16(sp)
40001194:	4242                	lw	tp,16(sp)
40001196:	3c42                	fld	fs8,48(sp)
40001198:	0000                	unimp
4000119a:	0000                	unimp
4000119c:	0000                	unimp
4000119e:	4242                	lw	tp,16(sp)
400011a0:	4242                	lw	tp,16(sp)
400011a2:	2442                	fld	fs0,16(sp)
400011a4:	2424                	fld	fs1,72(s0)
400011a6:	1818                	addi	a4,sp,48
400011a8:	0000                	unimp
400011aa:	0000                	unimp
400011ac:	0000                	unimp
400011ae:	8282                	jr	t0
400011b0:	8282                	jr	t0
400011b2:	9282                	jalr	t0
400011b4:	aa92                	fsd	ft4,336(sp)
400011b6:	82c6                	mv	t0,a7
400011b8:	0000                	unimp
400011ba:	0000                	unimp
400011bc:	0000                	unimp
400011be:	4242                	lw	tp,16(sp)
400011c0:	2424                	fld	fs1,72(s0)
400011c2:	1818                	addi	a4,sp,48
400011c4:	2424                	fld	fs1,72(s0)
400011c6:	4242                	lw	tp,16(sp)
400011c8:	0000                	unimp
400011ca:	0000                	unimp
400011cc:	0000                	unimp
400011ce:	8282                	jr	t0
400011d0:	4444                	lw	s1,12(s0)
400011d2:	1028                	addi	a0,sp,40
400011d4:	1010                	addi	a2,sp,32
400011d6:	1010                	addi	a2,sp,32
400011d8:	0000                	unimp
400011da:	0000                	unimp
400011dc:	0000                	unimp
400011de:	027e                	slli	tp,tp,0x1f
400011e0:	0402                	c.slli64	s0
400011e2:	1008                	addi	a0,sp,32
400011e4:	4020                	lw	s0,64(s0)
400011e6:	7e40                	flw	fs0,60(a2)
400011e8:	0000                	unimp
400011ea:	0000                	unimp
400011ec:	0000                	unimp
400011ee:	2038                	fld	fa4,64(s0)
400011f0:	2020                	fld	fs0,64(s0)
400011f2:	2020                	fld	fs0,64(s0)
400011f4:	2020                	fld	fs0,64(s0)
400011f6:	3820                	fld	fs0,112(s0)
400011f8:	0000                	unimp
400011fa:	0000                	unimp
400011fc:	0000                	unimp
400011fe:	4040                	lw	s0,4(s0)
40001200:	2020                	fld	fs0,64(s0)
40001202:	1010                	addi	a2,sp,32
40001204:	0808                	addi	a0,sp,16
40001206:	0404                	addi	s1,sp,512
40001208:	0000                	unimp
4000120a:	0000                	unimp
4000120c:	0000                	unimp
4000120e:	0838                	addi	a4,sp,24
40001210:	0808                	addi	a0,sp,16
40001212:	0808                	addi	a0,sp,16
40001214:	0808                	addi	a0,sp,16
40001216:	3808                	fld	fa0,48(s0)
40001218:	0000                	unimp
4000121a:	0000                	unimp
4000121c:	1000                	addi	s0,sp,32
4000121e:	4428                	lw	a0,72(s0)
	...
40001238:	7e00                	flw	fs0,56(a2)
4000123a:	0000                	unimp
4000123c:	0810                	addi	a2,sp,16
	...
4000124e:	0000                	unimp
40001250:	3c00                	fld	fs0,56(s0)
40001252:	3e02                	fld	ft8,32(sp)
40001254:	4242                	lw	tp,16(sp)
40001256:	3e42                	fld	ft8,48(sp)
40001258:	0000                	unimp
4000125a:	0000                	unimp
4000125c:	0000                	unimp
4000125e:	4040                	lw	s0,4(s0)
40001260:	7c40                	flw	fs0,60(s0)
40001262:	4242                	lw	tp,16(sp)
40001264:	4242                	lw	tp,16(sp)
40001266:	7c42                	flw	fs8,48(sp)
	...
40001270:	3c00                	fld	fs0,56(s0)
40001272:	4042                	0x4042
40001274:	4040                	lw	s0,4(s0)
40001276:	3c42                	fld	fs8,48(sp)
40001278:	0000                	unimp
4000127a:	0000                	unimp
4000127c:	0000                	unimp
4000127e:	0202                	c.slli64	tp
40001280:	3e02                	fld	ft8,32(sp)
40001282:	4242                	lw	tp,16(sp)
40001284:	4242                	lw	tp,16(sp)
40001286:	3e42                	fld	ft8,48(sp)
	...
40001290:	3c00                	fld	fs0,56(s0)
40001292:	4242                	lw	tp,16(sp)
40001294:	407e                	0x407e
40001296:	3c40                	fld	fs0,184(s0)
40001298:	0000                	unimp
4000129a:	0000                	unimp
4000129c:	0000                	unimp
4000129e:	100e                	c.slli	zero,0x23
400012a0:	7c10                	flw	fa2,56(s0)
400012a2:	1010                	addi	a2,sp,32
400012a4:	1010                	addi	a2,sp,32
400012a6:	1010                	addi	a2,sp,32
	...
400012b0:	3e00                	fld	fs0,56(a2)
400012b2:	4242                	lw	tp,16(sp)
400012b4:	4242                	lw	tp,16(sp)
400012b6:	3e42                	fld	ft8,48(sp)
400012b8:	0202                	c.slli64	tp
400012ba:	003c                	addi	a5,sp,8
400012bc:	0000                	unimp
400012be:	4040                	lw	s0,4(s0)
400012c0:	7c40                	flw	fs0,60(s0)
400012c2:	4242                	lw	tp,16(sp)
400012c4:	4242                	lw	tp,16(sp)
400012c6:	4242                	lw	tp,16(sp)
400012c8:	0000                	unimp
400012ca:	0000                	unimp
400012cc:	0000                	unimp
400012ce:	1010                	addi	a2,sp,32
400012d0:	3000                	fld	fs0,32(s0)
400012d2:	1010                	addi	a2,sp,32
400012d4:	1010                	addi	a2,sp,32
400012d6:	3810                	fld	fa2,48(s0)
400012d8:	0000                	unimp
400012da:	0000                	unimp
400012dc:	0000                	unimp
400012de:	0404                	addi	s1,sp,512
400012e0:	0c00                	addi	s0,sp,528
400012e2:	0404                	addi	s1,sp,512
400012e4:	0404                	addi	s1,sp,512
400012e6:	0404                	addi	s1,sp,512
400012e8:	4444                	lw	s1,12(s0)
400012ea:	0038                	addi	a4,sp,8
400012ec:	0000                	unimp
400012ee:	4040                	lw	s0,4(s0)
400012f0:	4240                	lw	s0,4(a2)
400012f2:	4844                	lw	s1,20(s0)
400012f4:	4870                	lw	a2,84(s0)
400012f6:	4244                	lw	s1,4(a2)
400012f8:	0000                	unimp
400012fa:	0000                	unimp
400012fc:	0000                	unimp
400012fe:	1030                	addi	a2,sp,40
40001300:	1010                	addi	a2,sp,32
40001302:	1010                	addi	a2,sp,32
40001304:	1010                	addi	a2,sp,32
40001306:	3810                	fld	fa2,48(s0)
	...
40001310:	fc00                	fsw	fs0,56(s0)
40001312:	9292                	add	t0,t0,tp
40001314:	9292                	add	t0,t0,tp
40001316:	9292                	add	t0,t0,tp
	...
40001320:	7c00                	flw	fs0,56(s0)
40001322:	4242                	lw	tp,16(sp)
40001324:	4242                	lw	tp,16(sp)
40001326:	4242                	lw	tp,16(sp)
	...
40001330:	3c00                	fld	fs0,56(s0)
40001332:	4242                	lw	tp,16(sp)
40001334:	4242                	lw	tp,16(sp)
40001336:	3c42                	fld	fs8,48(sp)
	...
40001340:	7c00                	flw	fs0,56(s0)
40001342:	4242                	lw	tp,16(sp)
40001344:	4242                	lw	tp,16(sp)
40001346:	7c42                	flw	fs8,48(sp)
40001348:	4040                	lw	s0,4(s0)
4000134a:	0040                	addi	s0,sp,4
4000134c:	0000                	unimp
4000134e:	0000                	unimp
40001350:	3e00                	fld	fs0,56(a2)
40001352:	4242                	lw	tp,16(sp)
40001354:	4242                	lw	tp,16(sp)
40001356:	3e42                	fld	ft8,48(sp)
40001358:	0202                	c.slli64	tp
4000135a:	0002                	c.slli64	zero
4000135c:	0000                	unimp
4000135e:	0000                	unimp
40001360:	5e00                	lw	s0,56(a2)
40001362:	4060                	lw	s0,68(s0)
40001364:	4040                	lw	s0,4(s0)
40001366:	4040                	lw	s0,4(s0)
	...
40001370:	3e00                	fld	fs0,56(a2)
40001372:	4040                	lw	s0,4(s0)
40001374:	023c                	addi	a5,sp,264
40001376:	7c02                	flw	fs8,32(sp)
40001378:	0000                	unimp
4000137a:	0000                	unimp
4000137c:	0000                	unimp
4000137e:	1010                	addi	a2,sp,32
40001380:	7c10                	flw	fa2,56(s0)
40001382:	1010                	addi	a2,sp,32
40001384:	1010                	addi	a2,sp,32
40001386:	0e10                	addi	a2,sp,784
	...
40001390:	4200                	lw	s0,0(a2)
40001392:	4242                	lw	tp,16(sp)
40001394:	4242                	lw	tp,16(sp)
40001396:	3e42                	fld	ft8,48(sp)
	...
400013a0:	4200                	lw	s0,0(a2)
400013a2:	4242                	lw	tp,16(sp)
400013a4:	2424                	fld	fs1,72(s0)
400013a6:	1818                	addi	a4,sp,48
	...
400013b0:	8200                	0x8200
400013b2:	9282                	jalr	t0
400013b4:	9292                	add	t0,t0,tp
400013b6:	7c92                	flw	fs9,36(sp)
	...
400013c0:	4200                	lw	s0,0(a2)
400013c2:	2442                	fld	fs0,16(sp)
400013c4:	2418                	fld	fa4,8(s0)
400013c6:	4242                	lw	tp,16(sp)
	...
400013d0:	4200                	lw	s0,0(a2)
400013d2:	4242                	lw	tp,16(sp)
400013d4:	4242                	lw	tp,16(sp)
400013d6:	3e42                	fld	ft8,48(sp)
400013d8:	0202                	c.slli64	tp
400013da:	003c                	addi	a5,sp,8
400013dc:	0000                	unimp
400013de:	0000                	unimp
400013e0:	7e00                	flw	fs0,56(a2)
400013e2:	0804                	addi	s1,sp,16
400013e4:	2010                	fld	fa2,0(s0)
400013e6:	7e40                	flw	fs0,60(a2)
400013e8:	0000                	unimp
400013ea:	0000                	unimp
400013ec:	0000                	unimp
400013ee:	100c                	addi	a1,sp,32
400013f0:	1010                	addi	a2,sp,32
400013f2:	1020                	addi	s0,sp,40
400013f4:	1010                	addi	a2,sp,32
400013f6:	0c10                	addi	a2,sp,528
400013f8:	0000                	unimp
400013fa:	0000                	unimp
400013fc:	0000                	unimp
400013fe:	1010                	addi	a2,sp,32
40001400:	1010                	addi	a2,sp,32
40001402:	1010                	addi	a2,sp,32
40001404:	1010                	addi	a2,sp,32
40001406:	1010                	addi	a2,sp,32
40001408:	0000                	unimp
4000140a:	0000                	unimp
4000140c:	0000                	unimp
4000140e:	0830                	addi	a2,sp,24
40001410:	0808                	addi	a0,sp,16
40001412:	0804                	addi	s1,sp,16
40001414:	0808                	addi	a0,sp,16
40001416:	3008                	fld	fa0,32(s0)
40001418:	0000                	unimp
4000141a:	0000                	unimp
4000141c:	6200                	flw	fs0,0(a2)
4000141e:	8c92                	mv	s9,tp
	...
